   1               		.file	"main.c"
   2               	__SREG__ = 0x3f
   3               	__SP_H__ = 0x3e
   4               	__SP_L__ = 0x3d
   5               	__CCP__  = 0x34
   6               	__tmp_reg__ = 0
   7               	__zero_reg__ = 1
  15               	.Ltext0:
  16               	.global	__vector_11
  18               	__vector_11:
  19               	.LFB8:
  20               	.LM1:
  21 0000 1F92      		push __zero_reg__
  22 0002 0F92      		push r0
  23 0004 0FB6      		in r0,__SREG__
  24 0006 0F92      		push r0
  25 0008 1124      		clr __zero_reg__
  26 000a 8F93      		push r24
  27 000c 9F93      		push r25
  28               	/* prologue: Signal */
  29               	/* frame size = 0 */
  30               	.LM2:
  31 000e 9091 0000 		lds r25,ms10
  32 0012 9F5F      		subi r25,lo8(-(1))
  33 0014 9093 0000 		sts ms10,r25
  34               	.LM3:
  35 0018 8091 0000 		lds r24,entprell
  36 001c 8823      		tst r24
  37 001e 01F0      		breq .L2
  38               	.LM4:
  39 0020 8150      		subi r24,lo8(-(-1))
  40 0022 8093 0000 		sts entprell,r24
  41               	.L2:
  42               	.LM5:
  43 0026 9A30      		cpi r25,lo8(10)
  44 0028 01F4      		brne .L3
  45               	.LM6:
  46 002a 1092 0000 		sts ms10,__zero_reg__
  47               	.LM7:
  48 002e 8091 0000 		lds r24,ms100
  49 0032 8F5F      		subi r24,lo8(-(1))
  50 0034 8093 0000 		sts ms100,r24
  51               	.L3:
  52               	.LM8:
  53 0038 8091 0000 		lds r24,ms100
  54 003c 8A30      		cpi r24,lo8(10)
  55 003e 01F4      		brne .L4
  56               	.LM9:
  57 0040 1092 0000 		sts ms100,__zero_reg__
  58               	.LM10:
  59 0044 8091 0000 		lds r24,sec
  60 0048 8F5F      		subi r24,lo8(-(1))
  61 004a 8093 0000 		sts sec,r24
  62               	.L4:
  63               	.LM11:
  64 004e 9091 0000 		lds r25,sec
  65 0052 9A30      		cpi r25,lo8(10)
  66 0054 01F4      		brne .L6
  67               	.LM12:
  68 0056 1092 0000 		sts sec,__zero_reg__
  69               	.LM13:
  70 005a 8091 0000 		lds r24,min
  71 005e 8F5F      		subi r24,lo8(-(1))
  72 0060 8093 0000 		sts min,r24
  73               	.LM14:
  74 0064 8091 0000 		lds r24,state
  75 0068 8B30      		cpi r24,lo8(11)
  76 006a 01F4      		brne .L6
  77               	.LM15:
  78 006c 9093 0000 		sts state,r25
  79               	.L6:
  80               	/* epilogue start */
  81               	.LM16:
  82 0070 9F91      		pop r25
  83 0072 8F91      		pop r24
  84 0074 0F90      		pop r0
  85 0076 0FBE      		out __SREG__,r0
  86 0078 0F90      		pop r0
  87 007a 1F90      		pop __zero_reg__
  88 007c 1895      		reti
  89               	.LFE8:
  91               		.data
  92               	.LC0:
  93 0000 4F46 4600 		.string	"OFF"
  94               	.LC1:
  95 0004 5469 6D65 		.string	"Time"
  95      00
  96               	.LC2:
  97 0009 416C 6172 		.string	"Alarm 1"
  97      6D20 3100 
  98               	.LC3:
  99 0011 5365 7474 		.string	"Settings"
  99      696E 6773 
  99      00
 100               	.LC4:
 101 001a 3C00      		.string	"<"
 102               	.LC5:
 103 001c 2564 2564 		.string	"%d%d.%d%d.%d%d"
 103      2E25 6425 
 103      642E 2564 
 103      2564 00
 104               	.LC6:
 105 002b 4D6F 6E64 		.string	"Monday   "
 105      6179 2020 
 105      2000 
 106               	.LC7:
 107 0035 5475 6573 		.string	"Tuesday  "
 107      6461 7920 
 107      2000 
 108               	.LC8:
 109 003f 5765 646E 		.string	"Wednesday"
 109      6573 6461 
 109      7900 
 110               	.LC9:
 111 0049 5468 7572 		.string	"Thursday "
 111      7364 6179 
 111      2000 
 112               	.LC10:
 113 0053 4672 6964 		.string	"Friday   "
 113      6179 2020 
 113      2000 
 114               	.LC11:
 115 005d 5361 7475 		.string	"Saturday "
 115      7264 6179 
 115      2000 
 116               	.LC12:
 117 0067 5375 6E64 		.string	"Sunday   "
 117      6179 2020 
 117      2000 
 118               	.LC13:
 119 0071 2564 2564 		.string	"%d%d:%d%d:%d%d "
 119      3A25 6425 
 119      643A 2564 
 119      2564 2000 
 120               	.LC14:
 121 0081 5965 6172 		.string	"Year   :"
 121      2020 203A 
 121      00
 122               	.LC15:
 123 008a 4D6F 6E74 		.string	"Month  :"
 123      6820 203A 
 123      00
 124               	.LC16:
 125 0093 4461 7465 		.string	"Date   :"
 125      2020 203A 
 125      00
 126               	.LC17:
 127 009c 5765 656B 		.string	"Weekday:"
 127      6461 793A 
 127      00
 128               	.LC18:
 129 00a5 2564 2020 		.string	"%d     "
 129      2020 2000 
 130               	.LC19:
 131 00ad 4D6F 00   		.string	"Mo"
 132               	.LC20:
 133 00b0 5475 00   		.string	"Tu"
 134               	.LC21:
 135 00b3 5765 00   		.string	"We"
 136               	.LC22:
 137 00b6 5468 00   		.string	"Th"
 138               	.LC23:
 139 00b9 4672 00   		.string	"Fr"
 140               	.LC24:
 141 00bc 5361 00   		.string	"Sa"
 142               	.LC25:
 143 00bf 5375 00   		.string	"Su"
 144               	.LC26:
 145 00c2 486F 7572 		.string	"Hour   :"
 145      2020 203A 
 145      00
 146               	.LC27:
 147 00cb 4D69 6E75 		.string	"Minute :"
 147      7465 203A 
 147      00
 148               	.LC28:
 149 00d4 5365 636F 		.string	"Second :"
 149      6E64 203A 
 149      00
 150               		.text
 151               	.global	main
 153               	main:
 154               	.LFB9:
 155               	.LM17:
 156 007e 2F92      		push r2
 157 0080 3F92      		push r3
 158 0082 4F92      		push r4
 159 0084 5F92      		push r5
 160 0086 6F92      		push r6
 161 0088 7F92      		push r7
 162 008a 8F92      		push r8
 163 008c 9F92      		push r9
 164 008e AF92      		push r10
 165 0090 BF92      		push r11
 166 0092 CF92      		push r12
 167 0094 DF92      		push r13
 168 0096 EF92      		push r14
 169 0098 FF92      		push r15
 170 009a 0F93      		push r16
 171 009c 1F93      		push r17
 172 009e DF93      		push r29
 173 00a0 CF93      		push r28
 174 00a2 CDB7      		in r28,__SP_L__
 175 00a4 DEB7      		in r29,__SP_H__
 176 00a6 AA97      		sbiw r28,42
 177 00a8 0FB6      		in __tmp_reg__,__SREG__
 178 00aa F894      		cli
 179 00ac DEBF      		out __SP_H__,r29
 180 00ae 0FBE      		out __SREG__,__tmp_reg__
 181 00b0 CDBF      		out __SP_L__,r28
 182               	/* prologue: function */
 183               	/* frame size = 42 */
 184               	.LM18:
 185 00b2 80E2      		ldi r24,lo8(32)
 186 00b4 90E0      		ldi r25,hi8(32)
 187 00b6 A0E0      		ldi r26,hlo8(32)
 188 00b8 B0E0      		ldi r27,hhi8(32)
 189 00ba 8983      		std Y+1,r24
 190 00bc 9A83      		std Y+2,r25
 191 00be AB83      		std Y+3,r26
 192 00c0 BC83      		std Y+4,r27
 193 00c2 FE01      		movw r30,r28
 194 00c4 3596      		adiw r30,5
 195 00c6 8AE1      		ldi r24,lo8(26)
 196 00c8 DF01      		movw r26,r30
 197 00ca 1D92      		st X+,__zero_reg__
 198 00cc 8A95      	        dec r24
 199 00ce 01F4      		brne .-6
 200               	.LM19:
 201 00d0 229A      		sbi 36-32,2
 202               	.LM20:
 203 00d2 2A98      		cbi 37-32,2
 204               	.LM21:
 205 00d4 8AB1      		in r24,42-32
 206 00d6 8B79      		andi r24,lo8(-101)
 207 00d8 8AB9      		out 42-32,r24
 208               	.LM22:
 209 00da 8BB1      		in r24,43-32
 210 00dc 8466      		ori r24,lo8(100)
 211 00de 8BB9      		out 43-32,r24
 212               	.LM23:
 213 00e0 5498      		cbi 42-32,4
 214               	.LM24:
 215 00e2 85B5      		in r24,69-32
 216 00e4 8760      		ori r24,lo8(7)
 217 00e6 85BD      		out 69-32,r24
 218               	.LM25:
 219 00e8 8CE9      		ldi r24,lo8(156)
 220 00ea 90E0      		ldi r25,hi8(156)
 221 00ec 9093 8900 		sts (136)+1,r25
 222 00f0 8093 8800 		sts 136,r24
 223               	.LM26:
 224 00f4 8091 8100 		lds r24,129
 225 00f8 8860      		ori r24,lo8(8)
 226 00fa 8093 8100 		sts 129,r24
 227               	.LM27:
 228 00fe 8091 6F00 		lds r24,111
 229 0102 8260      		ori r24,lo8(2)
 230 0104 8093 6F00 		sts 111,r24
 231               	.LM28:
 232 0108 8091 8100 		lds r24,129
 233 010c 8560      		ori r24,lo8(5)
 234 010e 8093 8100 		sts 129,r24
 235               	.LM29:
 236               	/* #APP */
 237               	 ;  130 "main.c" 1
 238 0112 7894      		sei
 239               	 ;  0 "" 2
 240               	/* #NOAPP */
 241               	.LBB182:
 242               	.LBB183:
 243               	.LM30:
 244 0114 0E94 0000 		call glcd_init
 245               	.LBE183:
 246               	.LBE182:
 247               	.LM31:
 248 0118 0E94 0000 		call glcd_clear
 249               	.LM32:
 250 011c 0E94 0000 		call glcd_write
 251               	.LM33:
 252 0120 80E0      		ldi r24,lo8(Font5x7)
 253 0122 90E0      		ldi r25,hi8(Font5x7)
 254 0124 65E0      		ldi r22,lo8(5)
 255 0126 47E0      		ldi r20,lo8(7)
 256 0128 20E2      		ldi r18,lo8(32)
 257 012a 0FE7      		ldi r16,lo8(127)
 258 012c 0E94 0000 		call glcd_tiny_set_font
 259               	.LM34:
 260 0130 0E94 0000 		call glcd_clear_buffer
 261               	.LM35:
 262 0134 81E0      		ldi r24,lo8(1)
 263 0136 8093 0000 		sts min,r24
 264               	.LM36:
 265 013a 0E94 0000 		call TWIInit
 266               	.LM37:
 267 013e 0E94 0000 		call InitRTC
 268 0142 01E0      		ldi r16,lo8(1)
 269               	.LVL0:
 270 0144 11E0      		ldi r17,lo8(1)
 271               	.LVL1:
 272 0146 EE24      		clr r14
 273               	.LVL2:
 274 0148 1DA2      		std Y+37,__zero_reg__
 275 014a 1CA2      		std Y+36,__zero_reg__
 276               	.LVL3:
 277 014c 1BA3      		std Y+35,r17
 278               	.LVL4:
 279 014e 1AA3      		std Y+34,r17
 280               	.LVL5:
 281 0150 3324      		clr r3
 282 0152 3394      		inc r3
 283               	.LVL6:
 284 0154 19A2      		std Y+33,__zero_reg__
 285               	.LVL7:
 286 0156 18A2      		std Y+32,__zero_reg__
 287               	.LVL8:
 288 0158 1F8E      		std Y+31,__zero_reg__
 289               	.LVL9:
 290               	.LM38:
 291 015a 3E01      		movw r6,r28
 292 015c 0894      		sec
 293 015e 611C      		adc r6,__zero_reg__
 294 0160 711C      		adc r7,__zero_reg__
 295               	.LBB184:
 296               	.LBB185:
 297               	.LBB186:
 298               	.LBB187:
 299               	.LM39:
 300 0162 F0E9      		ldi r31,lo8(400)
 301 0164 4F2E      		mov r4,r31
 302 0166 F1E0      		ldi r31,hi8(400)
 303 0168 5F2E      		mov r5,r31
 304               	.LVL10:
 305               	.L147:
 306               	.LBE187:
 307               	.LBE186:
 308               	.LBE185:
 309               	.LBE184:
 310               	.LM40:
 311 016a 1130      		cpi r17,lo8(1)
 312 016c 01F4      		brne .+2
 313 016e 00C0      		rjmp .L10
 314 0170 1130      		cpi r17,lo8(1)
 315 0172 00F0      		brlo .L9
 316 0174 1230      		cpi r17,lo8(2)
 317 0176 01F4      		brne .+2
 318 0178 00C0      		rjmp .L11
 319 017a 1430      		cpi r17,lo8(4)
 320 017c 01F4      		brne .L147
 321 017e 00C0      		rjmp .L159
 322               	.L9:
 323               	.LM41:
 324 0180 4D99      		sbic 41-32,5
 325 0182 00C0      		rjmp .L13
 326               	.LM42:
 327 0184 0F5F      		subi r16,lo8(-(1))
 328               	.LM43:
 329 0186 0530      		cpi r16,lo8(5)
 330 0188 01F4      		brne .L14
 331 018a 01E0      		ldi r16,lo8(1)
 332               	.L14:
 333 018c 86EB      		ldi r24,lo8(950)
 334 018e 93E0      		ldi r25,hi8(950)
 335               	.LVL11:
 336               	.L15:
 337               	.LBB191:
 338               	.LBB192:
 339               	.LBB193:
 340               	.LBB194:
 341               	.LM44:
 342 0190 F201      		movw r30,r4
 343               	.LVL12:
 344               	/* #APP */
 345               	 ;  105 "c:/winavr-20100110/lib/gcc/../../avr/include/util/delay_basic.h" 1
 346 0192 3197      		1: sbiw r30,1
 347 0194 01F4      		brne 1b
 348               	 ;  0 "" 2
 349               	/* #NOAPP */
 350               	.LBE194:
 351               	.LBE193:
 352               	.LM45:
 353 0196 0197      		sbiw r24,1
 354               	.LM46:
 355 0198 01F4      		brne .L15
 356               	.LBE192:
 357               	.LBE191:
 358               	.LM47:
 359 019a 0E94 0000 		call glcd_clear
 360               	.LVL13:
 361               	.LM48:
 362 019e 0E94 0000 		call glcd_clear_buffer
 363               	.L13:
 364               	.LM49:
 365 01a2 4E99      		sbic 41-32,6
 366 01a4 00C0      		rjmp .L16
 367               	.LM50:
 368 01a6 0150      		subi r16,lo8(-(-1))
 369               	.LM51:
 370 01a8 01F4      		brne .L17
 371 01aa 04E0      		ldi r16,lo8(4)
 372               	.L17:
 373 01ac 86EB      		ldi r24,lo8(950)
 374 01ae 93E0      		ldi r25,hi8(950)
 375               	.LVL14:
 376               	.L18:
 377               	.LBB195:
 378               	.LBB196:
 379               	.LBB197:
 380               	.LBB198:
 381               	.LM52:
 382 01b0 F201      		movw r30,r4
 383               	.LVL15:
 384               	/* #APP */
 385               	 ;  105 "c:/winavr-20100110/lib/gcc/../../avr/include/util/delay_basic.h" 1
 386 01b2 3197      		1: sbiw r30,1
 387 01b4 01F4      		brne 1b
 388               	 ;  0 "" 2
 389               	/* #NOAPP */
 390               	.LBE198:
 391               	.LBE197:
 392               	.LM53:
 393 01b6 0197      		sbiw r24,1
 394               	.LM54:
 395 01b8 01F4      		brne .L18
 396               	.LBE196:
 397               	.LBE195:
 398               	.LM55:
 399 01ba 0E94 0000 		call glcd_clear
 400               	.LVL16:
 401               	.LM56:
 402 01be 0E94 0000 		call glcd_clear_buffer
 403               	.L16:
 404               	.LM57:
 405 01c2 C301      		movw r24,r6
 406 01c4 60E0      		ldi r22,lo8(.LC0)
 407 01c6 70E0      		ldi r23,hi8(.LC0)
 408 01c8 0E94 0000 		call strcpy
 409               	.LM58:
 410 01cc 80E0      		ldi r24,lo8(0)
 411 01ce 60E0      		ldi r22,lo8(0)
 412 01d0 A301      		movw r20,r6
 413 01d2 0E94 0000 		call glcd_draw_string_xy
 414               	.LM59:
 415 01d6 0E94 0000 		call glcd_write
 416               	.LM60:
 417 01da C301      		movw r24,r6
 418 01dc 60E0      		ldi r22,lo8(.LC1)
 419 01de 70E0      		ldi r23,hi8(.LC1)
 420 01e0 0E94 0000 		call strcpy
 421               	.LM61:
 422 01e4 80E0      		ldi r24,lo8(0)
 423 01e6 68E0      		ldi r22,lo8(8)
 424 01e8 A301      		movw r20,r6
 425 01ea 0E94 0000 		call glcd_draw_string_xy
 426               	.LM62:
 427 01ee 0E94 0000 		call glcd_write
 428               	.LM63:
 429 01f2 C301      		movw r24,r6
 430 01f4 60E0      		ldi r22,lo8(.LC2)
 431 01f6 70E0      		ldi r23,hi8(.LC2)
 432 01f8 0E94 0000 		call strcpy
 433               	.LM64:
 434 01fc 80E0      		ldi r24,lo8(0)
 435 01fe 60E1      		ldi r22,lo8(16)
 436 0200 A301      		movw r20,r6
 437 0202 0E94 0000 		call glcd_draw_string_xy
 438               	.LM65:
 439 0206 0E94 0000 		call glcd_write
 440               	.LM66:
 441 020a C301      		movw r24,r6
 442 020c 60E0      		ldi r22,lo8(.LC3)
 443 020e 70E0      		ldi r23,hi8(.LC3)
 444 0210 0E94 0000 		call strcpy
 445               	.LM67:
 446 0214 80E0      		ldi r24,lo8(0)
 447 0216 68E1      		ldi r22,lo8(24)
 448 0218 A301      		movw r20,r6
 449 021a 0E94 0000 		call glcd_draw_string_xy
 450               	.LM68:
 451 021e 0E94 0000 		call glcd_write
 452               	.LM69:
 453 0222 C301      		movw r24,r6
 454 0224 60E0      		ldi r22,lo8(.LC4)
 455 0226 70E0      		ldi r23,hi8(.LC4)
 456 0228 0E94 0000 		call strcpy
 457               	.LM70:
 458 022c 0230      		cpi r16,lo8(2)
 459 022e 01F0      		breq .L21
 460 0230 0330      		cpi r16,lo8(3)
 461 0232 00F4      		brsh .L24
 462 0234 0130      		cpi r16,lo8(1)
 463 0236 01F0      		breq .+2
 464 0238 00C0      		rjmp .L19
 465 023a 00C0      		rjmp .L160
 466               	.L24:
 467 023c 0330      		cpi r16,lo8(3)
 468 023e 01F0      		breq .L22
 469 0240 0430      		cpi r16,lo8(4)
 470 0242 01F0      		breq .+2
 471 0244 00C0      		rjmp .L19
 472 0246 00C0      		rjmp .L161
 473               	.L160:
 474               	.LM71:
 475 0248 8EE4      		ldi r24,lo8(78)
 476 024a 60E0      		ldi r22,lo8(0)
 477 024c A301      		movw r20,r6
 478 024e 0E94 0000 		call glcd_draw_string_xy
 479               	.LM72:
 480 0252 4A99      		sbic 41-32,2
 481 0254 00C0      		rjmp .L19
 482 0256 86EB      		ldi r24,lo8(950)
 483 0258 93E0      		ldi r25,hi8(950)
 484               	.LVL17:
 485               	.L25:
 486               	.LBB199:
 487               	.LBB200:
 488               	.LBB201:
 489               	.LBB202:
 490               	.LM73:
 491 025a F201      		movw r30,r4
 492               	.LVL18:
 493               	/* #APP */
 494               	 ;  105 "c:/winavr-20100110/lib/gcc/../../avr/include/util/delay_basic.h" 1
 495 025c 3197      		1: sbiw r30,1
 496 025e 01F4      		brne 1b
 497               	 ;  0 "" 2
 498               	/* #NOAPP */
 499               	.LBE202:
 500               	.LBE201:
 501               	.LM74:
 502 0260 0197      		sbiw r24,1
 503               	.LM75:
 504 0262 01F4      		brne .L25
 505 0264 11E0      		ldi r17,lo8(1)
 506 0266 00C0      		rjmp .L19
 507               	.LVL19:
 508               	.L21:
 509               	.LBE200:
 510               	.LBE199:
 511               	.LM76:
 512 0268 8EE4      		ldi r24,lo8(78)
 513 026a 68E0      		ldi r22,lo8(8)
 514 026c A301      		movw r20,r6
 515 026e 0E94 0000 		call glcd_draw_string_xy
 516               	.LM77:
 517 0272 4A99      		sbic 41-32,2
 518 0274 00C0      		rjmp .L19
 519 0276 86EB      		ldi r24,lo8(950)
 520 0278 93E0      		ldi r25,hi8(950)
 521               	.LVL20:
 522               	.L26:
 523               	.LBB203:
 524               	.LBB204:
 525               	.LBB205:
 526               	.LBB206:
 527               	.LM78:
 528 027a F201      		movw r30,r4
 529               	.LVL21:
 530               	/* #APP */
 531               	 ;  105 "c:/winavr-20100110/lib/gcc/../../avr/include/util/delay_basic.h" 1
 532 027c 3197      		1: sbiw r30,1
 533 027e 01F4      		brne 1b
 534               	 ;  0 "" 2
 535               	/* #NOAPP */
 536               	.LBE206:
 537               	.LBE205:
 538               	.LM79:
 539 0280 0197      		sbiw r24,1
 540               	.LM80:
 541 0282 01F4      		brne .L26
 542 0284 12E0      		ldi r17,lo8(2)
 543 0286 00C0      		rjmp .L19
 544               	.LVL22:
 545               	.L22:
 546               	.LBE204:
 547               	.LBE203:
 548               	.LM81:
 549 0288 8EE4      		ldi r24,lo8(78)
 550 028a 60E1      		ldi r22,lo8(16)
 551 028c A301      		movw r20,r6
 552 028e 0E94 0000 		call glcd_draw_string_xy
 553               	.LM82:
 554 0292 4A99      		sbic 41-32,2
 555 0294 00C0      		rjmp .L19
 556 0296 86EB      		ldi r24,lo8(950)
 557 0298 93E0      		ldi r25,hi8(950)
 558               	.LVL23:
 559               	.L27:
 560               	.LBB207:
 561               	.LBB208:
 562               	.LBB209:
 563               	.LBB210:
 564               	.LM83:
 565 029a F201      		movw r30,r4
 566               	.LVL24:
 567               	/* #APP */
 568               	 ;  105 "c:/winavr-20100110/lib/gcc/../../avr/include/util/delay_basic.h" 1
 569 029c 3197      		1: sbiw r30,1
 570 029e 01F4      		brne 1b
 571               	 ;  0 "" 2
 572               	/* #NOAPP */
 573               	.LBE210:
 574               	.LBE209:
 575               	.LM84:
 576 02a0 0197      		sbiw r24,1
 577               	.LM85:
 578 02a2 01F4      		brne .L27
 579 02a4 13E0      		ldi r17,lo8(3)
 580 02a6 00C0      		rjmp .L19
 581               	.LVL25:
 582               	.L161:
 583               	.LBE208:
 584               	.LBE207:
 585               	.LM86:
 586 02a8 8EE4      		ldi r24,lo8(78)
 587 02aa 68E1      		ldi r22,lo8(24)
 588 02ac A301      		movw r20,r6
 589 02ae 0E94 0000 		call glcd_draw_string_xy
 590               	.LM87:
 591 02b2 4A99      		sbic 41-32,2
 592 02b4 00C0      		rjmp .L19
 593 02b6 86EB      		ldi r24,lo8(950)
 594 02b8 93E0      		ldi r25,hi8(950)
 595               	.LVL26:
 596               	.L28:
 597               	.LBB211:
 598               	.LBB212:
 599               	.LBB213:
 600               	.LBB214:
 601               	.LM88:
 602 02ba F201      		movw r30,r4
 603               	.LVL27:
 604               	/* #APP */
 605               	 ;  105 "c:/winavr-20100110/lib/gcc/../../avr/include/util/delay_basic.h" 1
 606 02bc 3197      		1: sbiw r30,1
 607 02be 01F4      		brne 1b
 608               	 ;  0 "" 2
 609               	/* #NOAPP */
 610               	.LBE214:
 611               	.LBE213:
 612               	.LM89:
 613 02c0 0197      		sbiw r24,1
 614               	.LM90:
 615 02c2 01F4      		brne .L28
 616 02c4 14E0      		ldi r17,lo8(4)
 617               	.LVL28:
 618               	.L19:
 619               	.LBE212:
 620               	.LBE211:
 621               	.LM91:
 622 02c6 0E94 0000 		call glcd_write
 623               	.LVL29:
 624 02ca 00C0      		rjmp .L147
 625               	.L10:
 626               	.LM92:
 627 02cc 0E94 0000 		call glcd_clear
 628               	.LM93:
 629 02d0 0E94 0000 		call glcd_clear_buffer
 630               	.L29:
 631               	.LM94:
 632 02d4 4A99      		sbic 41-32,2
 633 02d6 00C0      		rjmp .L29
 634 02d8 86EB      		ldi r24,lo8(950)
 635 02da 93E0      		ldi r25,hi8(950)
 636               	.LVL30:
 637               	.L30:
 638               	.LBB215:
 639               	.LBB216:
 640               	.LBB217:
 641               	.LBB218:
 642               	.LM95:
 643 02dc F201      		movw r30,r4
 644               	/* #APP */
 645               	 ;  105 "c:/winavr-20100110/lib/gcc/../../avr/include/util/delay_basic.h" 1
 646 02de 3197      		1: sbiw r30,1
 647 02e0 01F4      		brne 1b
 648               	 ;  0 "" 2
 649               	/* #NOAPP */
 650               	.LBE218:
 651               	.LBE217:
 652               	.LM96:
 653 02e2 0197      		sbiw r24,1
 654               	.LM97:
 655 02e4 01F4      		brne .L30
 656 02e6 00C0      		rjmp .L158
 657               	.LVL31:
 658               	.L11:
 659               	.LBE216:
 660               	.LBE215:
 661               	.LM98:
 662 02e8 0E94 0000 		call glcd_clear
 663               	.LM99:
 664 02ec 0E94 0000 		call glcd_clear_buffer
 665               	.L41:
 666               	.LM100:
 667 02f0 80E0      		ldi r24,lo8(0)
 668 02f2 0E94 0000 		call RTCReadByte
 669 02f6 EFE0      		ldi r30,lo8(15)
 670 02f8 8E2E      		mov r8,r30
 671 02fa 8822      		and r8,r24
 672               	.LM101:
 673 02fc 8E14      		cp r8,r14
 674 02fe 01F4      		brne .+2
 675 0300 00C0      		rjmp .L31
 676               	.LM102:
 677 0302 80E0      		ldi r24,lo8(0)
 678 0304 0E94 0000 		call RTCReadByte
 679 0308 8AA7      		std Y+42,r24
 680               	.LM103:
 681 030a 81E0      		ldi r24,lo8(1)
 682 030c 0E94 0000 		call RTCReadByte
 683 0310 89A7      		std Y+41,r24
 684               	.LM104:
 685 0312 81E0      		ldi r24,lo8(1)
 686 0314 0E94 0000 		call RTCReadByte
 687 0318 88A7      		std Y+40,r24
 688               	.LM105:
 689 031a 82E0      		ldi r24,lo8(2)
 690 031c 0E94 0000 		call RTCReadByte
 691 0320 282E      		mov r2,r24
 692               	.LM106:
 693 0322 82E0      		ldi r24,lo8(2)
 694 0324 0E94 0000 		call RTCReadByte
 695 0328 8FA3      		std Y+39,r24
 696               	.LM107:
 697 032a 83E0      		ldi r24,lo8(3)
 698 032c 0E94 0000 		call RTCReadByte
 699 0330 8EA3      		std Y+38,r24
 700               	.LM108:
 701 0332 84E0      		ldi r24,lo8(4)
 702 0334 0E94 0000 		call RTCReadByte
 703 0338 B82E      		mov r11,r24
 704               	.LM109:
 705 033a 84E0      		ldi r24,lo8(4)
 706 033c 0E94 0000 		call RTCReadByte
 707 0340 082F      		mov r16,r24
 708               	.LVL32:
 709               	.LM110:
 710 0342 85E0      		ldi r24,lo8(5)
 711 0344 0E94 0000 		call RTCReadByte
 712 0348 A82E      		mov r10,r24
 713               	.LM111:
 714 034a 85E0      		ldi r24,lo8(5)
 715 034c 0E94 0000 		call RTCReadByte
 716 0350 E82E      		mov r14,r24
 717               	.LVL33:
 718               	.LM112:
 719 0352 86E0      		ldi r24,lo8(6)
 720 0354 0E94 0000 		call RTCReadByte
 721 0358 982E      		mov r9,r24
 722               	.LM113:
 723 035a 86E0      		ldi r24,lo8(6)
 724 035c 0E94 0000 		call RTCReadByte
 725 0360 C82E      		mov r12,r24
 726               	.LM114:
 727 0362 0E94 0000 		call glcd_clear
 728               	.LM115:
 729 0366 0E94 0000 		call glcd_clear_buffer
 730               	.LM116:
 731 036a 8DB7      		in r24,__SP_L__
 732 036c 9EB7      		in r25,__SP_H__
 733 036e 4097      		sbiw r24,16
 734 0370 0FB6      		in __tmp_reg__,__SREG__
 735 0372 F894      		cli
 736 0374 9EBF      		out __SP_H__,r25
 737 0376 0FBE      		out __SREG__,__tmp_reg__
 738 0378 8DBF      		out __SP_L__,r24
 739 037a EDB7      		in r30,__SP_L__
 740 037c FEB7      		in r31,__SP_H__
 741 037e 3196      		adiw r30,1
 742 0380 ADB7      		in r26,__SP_L__
 743 0382 BEB7      		in r27,__SP_H__
 744 0384 1296      		adiw r26,1+1
 745 0386 7C92      		st X,r7
 746 0388 6E92      		st -X,r6
 747 038a 1197      		sbiw r26,1
 748 038c 80E0      		ldi r24,lo8(.LC5)
 749 038e 90E0      		ldi r25,hi8(.LC5)
 750 0390 9383      		std Z+3,r25
 751 0392 8283      		std Z+2,r24
 752 0394 10E0      		ldi r17,lo8(0)
 753               	.LVL34:
 754 0396 0073      		andi r16,lo8(48)
 755 0398 1070      		andi r17,hi8(48)
 756 039a 74E0      		ldi r23,4
 757 039c 1595      	1:	asr r17
 758 039e 0795      		ror r16
 759 03a0 7A95      		dec r23
 760 03a2 01F4      		brne 1b
 761 03a4 0483      		std Z+4,r16
 762 03a6 1582      		std Z+5,__zero_reg__
 763 03a8 9FE0      		ldi r25,lo8(15)
 764 03aa B922      		and r11,r25
 765 03ac B682      		std Z+6,r11
 766 03ae 1782      		std Z+7,__zero_reg__
 767 03b0 FF24      		clr r15
 768 03b2 A0E3      		ldi r26,lo8(48)
 769 03b4 EA22      		and r14,r26
 770 03b6 FF24      		clr r15
 771 03b8 64E0      		ldi r22,4
 772 03ba F594      	1:	asr r15
 773 03bc E794      		ror r14
 774 03be 6A95      		dec r22
 775 03c0 01F4      		brne 1b
 776 03c2 E086      		std Z+8,r14
 777 03c4 1186      		std Z+9,__zero_reg__
 778 03c6 A922      		and r10,r25
 779 03c8 A286      		std Z+10,r10
 780 03ca 1386      		std Z+11,__zero_reg__
 781 03cc DD24      		clr r13
 782 03ce B0E3      		ldi r27,lo8(48)
 783 03d0 CB22      		and r12,r27
 784 03d2 DD24      		clr r13
 785 03d4 54E0      		ldi r21,4
 786 03d6 D594      	1:	asr r13
 787 03d8 C794      		ror r12
 788 03da 5A95      		dec r21
 789 03dc 01F4      		brne 1b
 790 03de C486      		std Z+12,r12
 791 03e0 1586      		std Z+13,__zero_reg__
 792 03e2 9922      		and r9,r25
 793 03e4 9686      		std Z+14,r9
 794 03e6 1786      		std Z+15,__zero_reg__
 795 03e8 0E94 0000 		call sprintf
 796               	.LM117:
 797 03ec 8DB7      		in r24,__SP_L__
 798 03ee 9EB7      		in r25,__SP_H__
 799 03f0 4096      		adiw r24,16
 800 03f2 0FB6      		in __tmp_reg__,__SREG__
 801 03f4 F894      		cli
 802 03f6 9EBF      		out __SP_H__,r25
 803 03f8 0FBE      		out __SREG__,__tmp_reg__
 804 03fa 8DBF      		out __SP_L__,r24
 805 03fc 80E0      		ldi r24,lo8(0)
 806 03fe 60E0      		ldi r22,lo8(0)
 807 0400 A301      		movw r20,r6
 808 0402 0E94 0000 		call glcd_draw_string_xy
 809               	.LM118:
 810 0406 0E94 0000 		call glcd_write
 811               	.LM119:
 812 040a 8EA1      		ldd r24,Y+38
 813 040c 8770      		andi r24,lo8(7)
 814 040e 8430      		cpi r24,lo8(4)
 815 0410 01F0      		breq .L36
 816 0412 8530      		cpi r24,lo8(5)
 817 0414 00F4      		brsh .L40
 818 0416 8230      		cpi r24,lo8(2)
 819 0418 01F0      		breq .L34
 820 041a 8330      		cpi r24,lo8(3)
 821 041c 00F4      		brsh .L35
 822 041e 8130      		cpi r24,lo8(1)
 823 0420 01F4      		brne .L32
 824 0422 00C0      		rjmp .L162
 825               	.L40:
 826 0424 8630      		cpi r24,lo8(6)
 827 0426 01F0      		breq .L38
 828 0428 8630      		cpi r24,lo8(6)
 829 042a 00F0      		brlo .L37
 830 042c 8730      		cpi r24,lo8(7)
 831 042e 01F4      		brne .L32
 832 0430 00C0      		rjmp .L163
 833               	.L162:
 834               	.LM120:
 835 0432 C301      		movw r24,r6
 836 0434 60E0      		ldi r22,lo8(.LC6)
 837 0436 70E0      		ldi r23,hi8(.LC6)
 838 0438 00C0      		rjmp .L154
 839               	.L34:
 840               	.LM121:
 841 043a C301      		movw r24,r6
 842 043c 60E0      		ldi r22,lo8(.LC7)
 843 043e 70E0      		ldi r23,hi8(.LC7)
 844 0440 00C0      		rjmp .L154
 845               	.L35:
 846               	.LM122:
 847 0442 C301      		movw r24,r6
 848 0444 60E0      		ldi r22,lo8(.LC8)
 849 0446 70E0      		ldi r23,hi8(.LC8)
 850 0448 00C0      		rjmp .L154
 851               	.L36:
 852               	.LM123:
 853 044a C301      		movw r24,r6
 854 044c 60E0      		ldi r22,lo8(.LC9)
 855 044e 70E0      		ldi r23,hi8(.LC9)
 856 0450 00C0      		rjmp .L154
 857               	.L37:
 858               	.LM124:
 859 0452 C301      		movw r24,r6
 860 0454 60E0      		ldi r22,lo8(.LC10)
 861 0456 70E0      		ldi r23,hi8(.LC10)
 862 0458 00C0      		rjmp .L154
 863               	.L38:
 864               	.LM125:
 865 045a C301      		movw r24,r6
 866 045c 60E0      		ldi r22,lo8(.LC11)
 867 045e 70E0      		ldi r23,hi8(.LC11)
 868 0460 00C0      		rjmp .L154
 869               	.L163:
 870               	.LM126:
 871 0462 C301      		movw r24,r6
 872 0464 60E0      		ldi r22,lo8(.LC12)
 873 0466 70E0      		ldi r23,hi8(.LC12)
 874               	.L154:
 875 0468 0E94 0000 		call strcpy
 876               	.L32:
 877               	.LM127:
 878 046c 80E0      		ldi r24,lo8(0)
 879 046e 60E1      		ldi r22,lo8(16)
 880 0470 A301      		movw r20,r6
 881 0472 0E94 0000 		call glcd_draw_string_xy
 882               	.LM128:
 883 0476 0E94 0000 		call glcd_write
 884               	.LM129:
 885 047a ADB7      		in r26,__SP_L__
 886 047c BEB7      		in r27,__SP_H__
 887 047e 5097      		sbiw r26,16
 888 0480 0FB6      		in __tmp_reg__,__SREG__
 889 0482 F894      		cli
 890 0484 BEBF      		out __SP_H__,r27
 891 0486 0FBE      		out __SREG__,__tmp_reg__
 892 0488 ADBF      		out __SP_L__,r26
 893 048a EDB7      		in r30,__SP_L__
 894 048c FEB7      		in r31,__SP_H__
 895 048e 3196      		adiw r30,1
 896 0490 1296      		adiw r26,1+1
 897 0492 7C92      		st X,r7
 898 0494 6E92      		st -X,r6
 899 0496 1197      		sbiw r26,1
 900 0498 80E0      		ldi r24,lo8(.LC13)
 901 049a 90E0      		ldi r25,hi8(.LC13)
 902 049c 9383      		std Z+3,r25
 903 049e 8283      		std Z+2,r24
 904 04a0 AFA1      		ldd r26,Y+39
 905 04a2 8A2F      		mov r24,r26
 906 04a4 90E0      		ldi r25,lo8(0)
 907 04a6 8073      		andi r24,lo8(48)
 908 04a8 9070      		andi r25,hi8(48)
 909 04aa 44E0      		ldi r20,4
 910 04ac 9595      	1:	asr r25
 911 04ae 8795      		ror r24
 912 04b0 4A95      		dec r20
 913 04b2 01F4      		brne 1b
 914 04b4 8483      		std Z+4,r24
 915 04b6 1582      		std Z+5,__zero_reg__
 916 04b8 BFE0      		ldi r27,lo8(15)
 917 04ba 2B22      		and r2,r27
 918 04bc 2682      		std Z+6,r2
 919 04be 1782      		std Z+7,__zero_reg__
 920 04c0 28A5      		ldd r18,Y+40
 921 04c2 822F      		mov r24,r18
 922 04c4 90E0      		ldi r25,lo8(0)
 923 04c6 8077      		andi r24,lo8(112)
 924 04c8 9070      		andi r25,hi8(112)
 925 04ca 34E0      		ldi r19,4
 926 04cc 9595      	1:	asr r25
 927 04ce 8795      		ror r24
 928 04d0 3A95      		dec r19
 929 04d2 01F4      		brne 1b
 930 04d4 8087      		std Z+8,r24
 931 04d6 1186      		std Z+9,__zero_reg__
 932 04d8 89A5      		ldd r24,Y+41
 933 04da 8F70      		andi r24,lo8(15)
 934 04dc 8287      		std Z+10,r24
 935 04de 1386      		std Z+11,__zero_reg__
 936 04e0 AAA5      		ldd r26,Y+42
 937 04e2 8A2F      		mov r24,r26
 938 04e4 90E0      		ldi r25,lo8(0)
 939 04e6 8077      		andi r24,lo8(112)
 940 04e8 9070      		andi r25,hi8(112)
 941 04ea 24E0      		ldi r18,4
 942 04ec 9595      	1:	asr r25
 943 04ee 8795      		ror r24
 944 04f0 2A95      		dec r18
 945 04f2 01F4      		brne 1b
 946 04f4 8487      		std Z+12,r24
 947 04f6 1586      		std Z+13,__zero_reg__
 948 04f8 8686      		std Z+14,r8
 949 04fa 1786      		std Z+15,__zero_reg__
 950 04fc 0E94 0000 		call sprintf
 951               	.LM130:
 952 0500 8DB7      		in r24,__SP_L__
 953 0502 9EB7      		in r25,__SP_H__
 954 0504 4096      		adiw r24,16
 955 0506 0FB6      		in __tmp_reg__,__SREG__
 956 0508 F894      		cli
 957 050a 9EBF      		out __SP_H__,r25
 958 050c 0FBE      		out __SREG__,__tmp_reg__
 959 050e 8DBF      		out __SP_L__,r24
 960 0510 80E0      		ldi r24,lo8(0)
 961 0512 60E2      		ldi r22,lo8(32)
 962 0514 A301      		movw r20,r6
 963 0516 0E94 0000 		call glcd_draw_string_xy
 964               	.LM131:
 965 051a 0E94 0000 		call glcd_write
 966               	.LVL35:
 967               	.L31:
 968               	.LM132:
 969 051e E82C      		mov r14,r8
 970 0520 4A99      		sbic 41-32,2
 971 0522 00C0      		rjmp .L41
 972 0524 86EB      		ldi r24,lo8(950)
 973 0526 93E0      		ldi r25,hi8(950)
 974               	.LVL36:
 975               	.L42:
 976               	.LBB219:
 977               	.LBB190:
 978               	.LBB189:
 979               	.LBB188:
 980               	.LM133:
 981 0528 F201      		movw r30,r4
 982               	/* #APP */
 983               	 ;  105 "c:/winavr-20100110/lib/gcc/../../avr/include/util/delay_basic.h" 1
 984 052a 3197      		1: sbiw r30,1
 985 052c 01F4      		brne 1b
 986               	 ;  0 "" 2
 987               	/* #NOAPP */
 988               	.LBE188:
 989               	.LBE189:
 990               	.LM134:
 991 052e 0197      		sbiw r24,1
 992               	.LM135:
 993 0530 01F4      		brne .L42
 994               	.LBE190:
 995               	.LBE219:
 996               	.LM136:
 997 0532 0E94 0000 		call glcd_clear
 998               	.LVL37:
 999               	.LM137:
 1000 0536 0E94 0000 		call glcd_clear_buffer
 1001 053a E82C      		mov r14,r8
 1002 053c 00C0      		rjmp .L153
 1003               	.L159:
 1004               	.LM138:
 1005 053e 0E94 0000 		call glcd_clear
 1006               	.LM139:
 1007 0542 0E94 0000 		call glcd_clear_buffer
 1008               	.LM140:
 1009 0546 C301      		movw r24,r6
 1010 0548 60E0      		ldi r22,lo8(.LC14)
 1011 054a 70E0      		ldi r23,hi8(.LC14)
 1012 054c 0E94 0000 		call strcpy
 1013               	.LM141:
 1014 0550 80E0      		ldi r24,lo8(0)
 1015 0552 60E0      		ldi r22,lo8(0)
 1016 0554 A301      		movw r20,r6
 1017 0556 0E94 0000 		call glcd_draw_string_xy
 1018               	.LM142:
 1019 055a C301      		movw r24,r6
 1020 055c 60E0      		ldi r22,lo8(.LC15)
 1021 055e 70E0      		ldi r23,hi8(.LC15)
 1022 0560 0E94 0000 		call strcpy
 1023               	.LM143:
 1024 0564 80E0      		ldi r24,lo8(0)
 1025 0566 68E0      		ldi r22,lo8(8)
 1026 0568 A301      		movw r20,r6
 1027 056a 0E94 0000 		call glcd_draw_string_xy
 1028               	.LM144:
 1029 056e C301      		movw r24,r6
 1030 0570 60E0      		ldi r22,lo8(.LC16)
 1031 0572 70E0      		ldi r23,hi8(.LC16)
 1032 0574 0E94 0000 		call strcpy
 1033               	.LM145:
 1034 0578 80E0      		ldi r24,lo8(0)
 1035 057a 60E1      		ldi r22,lo8(16)
 1036 057c A301      		movw r20,r6
 1037 057e 0E94 0000 		call glcd_draw_string_xy
 1038               	.LM146:
 1039 0582 C301      		movw r24,r6
 1040 0584 60E0      		ldi r22,lo8(.LC17)
 1041 0586 70E0      		ldi r23,hi8(.LC17)
 1042 0588 0E94 0000 		call strcpy
 1043               	.LM147:
 1044 058c 80E0      		ldi r24,lo8(0)
 1045 058e 60E2      		ldi r22,lo8(32)
 1046 0590 00C0      		rjmp .L155
 1047               	.L50:
 1048               	.LM148:
 1049 0592 4E99      		sbic 41-32,6
 1050 0594 00C0      		rjmp .L44
 1051               	.LM149:
 1052 0596 ACA1      		ldd r26,Y+36
 1053 0598 BDA1      		ldd r27,Y+37
 1054 059a 1197      		sbiw r26,1
 1055 059c BDA3      		std Y+37,r27
 1056 059e ACA3      		std Y+36,r26
 1057               	.LVL38:
 1058               	.LM150:
 1059 05a0 AF5F      		subi r26,lo8(-1)
 1060 05a2 BF4F      		sbci r27,hi8(-1)
 1061 05a4 01F4      		brne .L45
 1062 05a6 83E6      		ldi r24,lo8(99)
 1063 05a8 90E0      		ldi r25,hi8(99)
 1064 05aa 9DA3      		std Y+37,r25
 1065 05ac 8CA3      		std Y+36,r24
 1066               	.LVL39:
 1067               	.L45:
 1068 05ae 86EB      		ldi r24,lo8(950)
 1069 05b0 93E0      		ldi r25,hi8(950)
 1070               	.LVL40:
 1071               	.L46:
 1072               	.LBB220:
 1073               	.LBB221:
 1074               	.LBB222:
 1075               	.LBB223:
 1076               	.LM151:
 1077 05b2 F201      		movw r30,r4
 1078               	/* #APP */
 1079               	 ;  105 "c:/winavr-20100110/lib/gcc/../../avr/include/util/delay_basic.h" 1
 1080 05b4 3197      		1: sbiw r30,1
 1081 05b6 01F4      		brne 1b
 1082               	 ;  0 "" 2
 1083               	/* #NOAPP */
 1084               	.LBE223:
 1085               	.LBE222:
 1086               	.LM152:
 1087 05b8 0197      		sbiw r24,1
 1088               	.LM153:
 1089 05ba 01F4      		brne .L46
 1090               	.LVL41:
 1091               	.L44:
 1092               	.LBE221:
 1093               	.LBE220:
 1094               	.LM154:
 1095 05bc 4D99      		sbic 41-32,5
 1096 05be 00C0      		rjmp .L47
 1097               	.LM155:
 1098 05c0 ACA1      		ldd r26,Y+36
 1099 05c2 BDA1      		ldd r27,Y+37
 1100 05c4 1196      		adiw r26,1
 1101 05c6 BDA3      		std Y+37,r27
 1102 05c8 ACA3      		std Y+36,r26
 1103               	.LVL42:
 1104               	.LM156:
 1105 05ca A436      		cpi r26,100
 1106 05cc B105      		cpc r27,__zero_reg__
 1107 05ce 01F4      		brne .L48
 1108 05d0 1DA2      		std Y+37,__zero_reg__
 1109 05d2 1CA2      		std Y+36,__zero_reg__
 1110               	.LVL43:
 1111               	.L48:
 1112 05d4 86EB      		ldi r24,lo8(950)
 1113 05d6 93E0      		ldi r25,hi8(950)
 1114               	.LVL44:
 1115               	.L49:
 1116               	.LBB224:
 1117               	.LBB225:
 1118               	.LBB226:
 1119               	.LBB227:
 1120               	.LM157:
 1121 05d8 F201      		movw r30,r4
 1122               	.LVL45:
 1123               	/* #APP */
 1124               	 ;  105 "c:/winavr-20100110/lib/gcc/../../avr/include/util/delay_basic.h" 1
 1125 05da 3197      		1: sbiw r30,1
 1126 05dc 01F4      		brne 1b
 1127               	 ;  0 "" 2
 1128               	/* #NOAPP */
 1129               	.LBE227:
 1130               	.LBE226:
 1131               	.LM158:
 1132 05de 0197      		sbiw r24,1
 1133               	.LM159:
 1134 05e0 01F4      		brne .L49
 1135               	.LVL46:
 1136               	.L47:
 1137               	.LBE225:
 1138               	.LBE224:
 1139               	.LM160:
 1140 05e2 00D0      		rcall .
 1141 05e4 00D0      		rcall .
 1142 05e6 00D0      		rcall .
 1143 05e8 EDB7      		in r30,__SP_L__
 1144 05ea FEB7      		in r31,__SP_H__
 1145               	.LVL47:
 1146 05ec 3196      		adiw r30,1
 1147 05ee ADB7      		in r26,__SP_L__
 1148 05f0 BEB7      		in r27,__SP_H__
 1149 05f2 1296      		adiw r26,1+1
 1150 05f4 7C92      		st X,r7
 1151 05f6 6E92      		st -X,r6
 1152 05f8 1197      		sbiw r26,1
 1153 05fa 80E0      		ldi r24,lo8(.LC18)
 1154 05fc 90E0      		ldi r25,hi8(.LC18)
 1155               	.LVL48:
 1156 05fe 9383      		std Z+3,r25
 1157 0600 8283      		std Z+2,r24
 1158 0602 ACA1      		ldd r26,Y+36
 1159 0604 BDA1      		ldd r27,Y+37
 1160 0606 B583      		std Z+5,r27
 1161 0608 A483      		std Z+4,r26
 1162 060a 0E94 0000 		call sprintf
 1163               	.LM161:
 1164 060e 8DB7      		in r24,__SP_L__
 1165 0610 9EB7      		in r25,__SP_H__
 1166 0612 0696      		adiw r24,6
 1167 0614 0FB6      		in __tmp_reg__,__SREG__
 1168 0616 F894      		cli
 1169 0618 9EBF      		out __SP_H__,r25
 1170 061a 0FBE      		out __SREG__,__tmp_reg__
 1171 061c 8DBF      		out __SP_L__,r24
 1172 061e 82E3      		ldi r24,lo8(50)
 1173 0620 60E0      		ldi r22,lo8(0)
 1174               	.L155:
 1175 0622 A301      		movw r20,r6
 1176 0624 0E94 0000 		call glcd_draw_string_xy
 1177               	.LM162:
 1178 0628 0E94 0000 		call glcd_write
 1179               	.LM163:
 1180 062c 4A99      		sbic 41-32,2
 1181 062e 00C0      		rjmp .L50
 1182               	.LM164:
 1183 0630 8CA1      		ldd r24,Y+36
 1184 0632 0E94 0000 		call RTCSetYear
 1185 0636 86EB      		ldi r24,lo8(950)
 1186 0638 93E0      		ldi r25,hi8(950)
 1187               	.LVL49:
 1188               	.L51:
 1189               	.LBB228:
 1190               	.LBB229:
 1191               	.LBB230:
 1192               	.LBB231:
 1193               	.LM165:
 1194 063a F201      		movw r30,r4
 1195               	/* #APP */
 1196               	 ;  105 "c:/winavr-20100110/lib/gcc/../../avr/include/util/delay_basic.h" 1
 1197 063c 3197      		1: sbiw r30,1
 1198 063e 01F4      		brne 1b
 1199               	 ;  0 "" 2
 1200               	/* #NOAPP */
 1201               	.LBE231:
 1202               	.LBE230:
 1203               	.LM166:
 1204 0640 0197      		sbiw r24,1
 1205               	.LM167:
 1206 0642 01F4      		brne .L51
 1207 0644 00C0      		rjmp .L148
 1208               	.L59:
 1209               	.LBE229:
 1210               	.LBE228:
 1211               	.LM168:
 1212 0646 4E99      		sbic 41-32,6
 1213 0648 00C0      		rjmp .L53
 1214               	.LM169:
 1215 064a 9AA1      		ldd r25,Y+34
 1216 064c 9150      		subi r25,lo8(-(-1))
 1217 064e 9AA3      		std Y+34,r25
 1218               	.LVL50:
 1219               	.LM170:
 1220 0650 9923      		tst r25
 1221 0652 01F4      		brne .L54
 1222 0654 ACE0      		ldi r26,lo8(12)
 1223 0656 AAA3      		std Y+34,r26
 1224               	.LVL51:
 1225               	.L54:
 1226 0658 86EB      		ldi r24,lo8(950)
 1227 065a 93E0      		ldi r25,hi8(950)
 1228               	.LVL52:
 1229               	.L55:
 1230               	.LBB232:
 1231               	.LBB233:
 1232               	.LBB234:
 1233               	.LBB235:
 1234               	.LM171:
 1235 065c F201      		movw r30,r4
 1236               	.LVL53:
 1237               	/* #APP */
 1238               	 ;  105 "c:/winavr-20100110/lib/gcc/../../avr/include/util/delay_basic.h" 1
 1239 065e 3197      		1: sbiw r30,1
 1240 0660 01F4      		brne 1b
 1241               	 ;  0 "" 2
 1242               	/* #NOAPP */
 1243               	.LBE235:
 1244               	.LBE234:
 1245               	.LM172:
 1246 0662 0197      		sbiw r24,1
 1247               	.LM173:
 1248 0664 01F4      		brne .L55
 1249               	.LVL54:
 1250               	.L53:
 1251               	.LBE233:
 1252               	.LBE232:
 1253               	.LM174:
 1254 0666 4D99      		sbic 41-32,5
 1255 0668 00C0      		rjmp .L56
 1256               	.LM175:
 1257 066a BAA1      		ldd r27,Y+34
 1258 066c BF5F      		subi r27,lo8(-(1))
 1259 066e BAA3      		std Y+34,r27
 1260               	.LVL55:
 1261               	.LM176:
 1262 0670 BD30      		cpi r27,lo8(13)
 1263 0672 01F4      		brne .L57
 1264 0674 21E0      		ldi r18,lo8(1)
 1265 0676 2AA3      		std Y+34,r18
 1266               	.LVL56:
 1267               	.L57:
 1268 0678 86EB      		ldi r24,lo8(950)
 1269 067a 93E0      		ldi r25,hi8(950)
 1270               	.LVL57:
 1271               	.L58:
 1272               	.LBB236:
 1273               	.LBB237:
 1274               	.LBB238:
 1275               	.LBB239:
 1276               	.LM177:
 1277 067c F201      		movw r30,r4
 1278               	.LVL58:
 1279               	/* #APP */
 1280               	 ;  105 "c:/winavr-20100110/lib/gcc/../../avr/include/util/delay_basic.h" 1
 1281 067e 3197      		1: sbiw r30,1
 1282 0680 01F4      		brne 1b
 1283               	 ;  0 "" 2
 1284               	/* #NOAPP */
 1285               	.LBE239:
 1286               	.LBE238:
 1287               	.LM178:
 1288 0682 0197      		sbiw r24,1
 1289               	.LM179:
 1290 0684 01F4      		brne .L58
 1291               	.LVL59:
 1292               	.L56:
 1293               	.LBE237:
 1294               	.LBE236:
 1295               	.LM180:
 1296 0686 00D0      		rcall .
 1297 0688 00D0      		rcall .
 1298 068a 00D0      		rcall .
 1299 068c EDB7      		in r30,__SP_L__
 1300 068e FEB7      		in r31,__SP_H__
 1301               	.LVL60:
 1302 0690 3196      		adiw r30,1
 1303 0692 ADB7      		in r26,__SP_L__
 1304 0694 BEB7      		in r27,__SP_H__
 1305 0696 1296      		adiw r26,1+1
 1306 0698 7C92      		st X,r7
 1307 069a 6E92      		st -X,r6
 1308 069c 1197      		sbiw r26,1
 1309 069e 80E0      		ldi r24,lo8(.LC18)
 1310 06a0 90E0      		ldi r25,hi8(.LC18)
 1311               	.LVL61:
 1312 06a2 9383      		std Z+3,r25
 1313 06a4 8283      		std Z+2,r24
 1314 06a6 9AA1      		ldd r25,Y+34
 1315 06a8 9483      		std Z+4,r25
 1316 06aa 1582      		std Z+5,__zero_reg__
 1317 06ac 0E94 0000 		call sprintf
 1318               	.LM181:
 1319 06b0 ADB7      		in r26,__SP_L__
 1320 06b2 BEB7      		in r27,__SP_H__
 1321 06b4 1696      		adiw r26,6
 1322 06b6 0FB6      		in __tmp_reg__,__SREG__
 1323 06b8 F894      		cli
 1324 06ba BEBF      		out __SP_H__,r27
 1325 06bc 0FBE      		out __SREG__,__tmp_reg__
 1326 06be ADBF      		out __SP_L__,r26
 1327 06c0 82E3      		ldi r24,lo8(50)
 1328 06c2 68E0      		ldi r22,lo8(8)
 1329 06c4 A301      		movw r20,r6
 1330 06c6 0E94 0000 		call glcd_draw_string_xy
 1331               	.LM182:
 1332 06ca 0E94 0000 		call glcd_write
 1333               	.LVL62:
 1334               	.L148:
 1335               	.LM183:
 1336 06ce 4A99      		sbic 41-32,2
 1337 06d0 00C0      		rjmp .L59
 1338               	.LM184:
 1339 06d2 8AA1      		ldd r24,Y+34
 1340               	.LVL63:
 1341 06d4 0E94 0000 		call RTCSetMonth
 1342               	.LVL64:
 1343 06d8 86EB      		ldi r24,lo8(950)
 1344 06da 93E0      		ldi r25,hi8(950)
 1345               	.LVL65:
 1346               	.L60:
 1347               	.LBB240:
 1348               	.LBB241:
 1349               	.LBB242:
 1350               	.LBB243:
 1351               	.LM185:
 1352 06dc F201      		movw r30,r4
 1353               	/* #APP */
 1354               	 ;  105 "c:/winavr-20100110/lib/gcc/../../avr/include/util/delay_basic.h" 1
 1355 06de 3197      		1: sbiw r30,1
 1356 06e0 01F4      		brne 1b
 1357               	 ;  0 "" 2
 1358               	/* #NOAPP */
 1359               	.LBE243:
 1360               	.LBE242:
 1361               	.LM186:
 1362 06e2 0197      		sbiw r24,1
 1363               	.LM187:
 1364 06e4 01F4      		brne .L60
 1365 06e6 00C0      		rjmp .L149
 1366               	.L68:
 1367               	.LBE241:
 1368               	.LBE240:
 1369               	.LM188:
 1370 06e8 4E99      		sbic 41-32,6
 1371 06ea 00C0      		rjmp .L62
 1372               	.LM189:
 1373 06ec BBA1      		ldd r27,Y+35
 1374 06ee B150      		subi r27,lo8(-(-1))
 1375 06f0 BBA3      		std Y+35,r27
 1376               	.LVL66:
 1377               	.LM190:
 1378 06f2 BB23      		tst r27
 1379 06f4 01F4      		brne .L63
 1380 06f6 20E2      		ldi r18,lo8(32)
 1381 06f8 2BA3      		std Y+35,r18
 1382               	.LVL67:
 1383               	.L63:
 1384 06fa 86EB      		ldi r24,lo8(950)
 1385 06fc 93E0      		ldi r25,hi8(950)
 1386               	.LVL68:
 1387               	.L64:
 1388               	.LBB244:
 1389               	.LBB245:
 1390               	.LBB246:
 1391               	.LBB247:
 1392               	.LM191:
 1393 06fe F201      		movw r30,r4
 1394               	.LVL69:
 1395               	/* #APP */
 1396               	 ;  105 "c:/winavr-20100110/lib/gcc/../../avr/include/util/delay_basic.h" 1
 1397 0700 3197      		1: sbiw r30,1
 1398 0702 01F4      		brne 1b
 1399               	 ;  0 "" 2
 1400               	/* #NOAPP */
 1401               	.LBE247:
 1402               	.LBE246:
 1403               	.LM192:
 1404 0704 0197      		sbiw r24,1
 1405               	.LM193:
 1406 0706 01F4      		brne .L64
 1407               	.LVL70:
 1408               	.L62:
 1409               	.LBE245:
 1410               	.LBE244:
 1411               	.LM194:
 1412 0708 4D99      		sbic 41-32,5
 1413 070a 00C0      		rjmp .L65
 1414               	.LM195:
 1415 070c 8BA1      		ldd r24,Y+35
 1416               	.LVL71:
 1417 070e 8F5F      		subi r24,lo8(-(1))
 1418 0710 8BA3      		std Y+35,r24
 1419               	.LVL72:
 1420               	.LM196:
 1421 0712 8132      		cpi r24,lo8(33)
 1422 0714 01F4      		brne .L66
 1423 0716 91E0      		ldi r25,lo8(1)
 1424 0718 9BA3      		std Y+35,r25
 1425               	.LVL73:
 1426               	.L66:
 1427 071a 86EB      		ldi r24,lo8(950)
 1428 071c 93E0      		ldi r25,hi8(950)
 1429               	.LVL74:
 1430               	.L67:
 1431               	.LBB248:
 1432               	.LBB249:
 1433               	.LBB250:
 1434               	.LBB251:
 1435               	.LM197:
 1436 071e F201      		movw r30,r4
 1437               	.LVL75:
 1438               	/* #APP */
 1439               	 ;  105 "c:/winavr-20100110/lib/gcc/../../avr/include/util/delay_basic.h" 1
 1440 0720 3197      		1: sbiw r30,1
 1441 0722 01F4      		brne 1b
 1442               	 ;  0 "" 2
 1443               	/* #NOAPP */
 1444               	.LBE251:
 1445               	.LBE250:
 1446               	.LM198:
 1447 0724 0197      		sbiw r24,1
 1448               	.LM199:
 1449 0726 01F4      		brne .L67
 1450               	.LVL76:
 1451               	.L65:
 1452               	.LBE249:
 1453               	.LBE248:
 1454               	.LM200:
 1455 0728 00D0      		rcall .
 1456 072a 00D0      		rcall .
 1457 072c 00D0      		rcall .
 1458 072e EDB7      		in r30,__SP_L__
 1459 0730 FEB7      		in r31,__SP_H__
 1460               	.LVL77:
 1461 0732 3196      		adiw r30,1
 1462 0734 ADB7      		in r26,__SP_L__
 1463 0736 BEB7      		in r27,__SP_H__
 1464 0738 1296      		adiw r26,1+1
 1465 073a 7C92      		st X,r7
 1466 073c 6E92      		st -X,r6
 1467 073e 1197      		sbiw r26,1
 1468 0740 80E0      		ldi r24,lo8(.LC18)
 1469 0742 90E0      		ldi r25,hi8(.LC18)
 1470               	.LVL78:
 1471 0744 9383      		std Z+3,r25
 1472 0746 8283      		std Z+2,r24
 1473 0748 9BA1      		ldd r25,Y+35
 1474 074a 9483      		std Z+4,r25
 1475 074c 1582      		std Z+5,__zero_reg__
 1476 074e 0E94 0000 		call sprintf
 1477               	.LM201:
 1478 0752 ADB7      		in r26,__SP_L__
 1479 0754 BEB7      		in r27,__SP_H__
 1480 0756 1696      		adiw r26,6
 1481 0758 0FB6      		in __tmp_reg__,__SREG__
 1482 075a F894      		cli
 1483 075c BEBF      		out __SP_H__,r27
 1484 075e 0FBE      		out __SREG__,__tmp_reg__
 1485 0760 ADBF      		out __SP_L__,r26
 1486 0762 82E3      		ldi r24,lo8(50)
 1487 0764 60E1      		ldi r22,lo8(16)
 1488 0766 A301      		movw r20,r6
 1489 0768 0E94 0000 		call glcd_draw_string_xy
 1490               	.LM202:
 1491 076c 0E94 0000 		call glcd_write
 1492               	.LVL79:
 1493               	.L149:
 1494               	.LM203:
 1495 0770 4A99      		sbic 41-32,2
 1496 0772 00C0      		rjmp .L68
 1497               	.LM204:
 1498 0774 8BA1      		ldd r24,Y+35
 1499               	.LVL80:
 1500 0776 0E94 0000 		call RTCSetDate
 1501               	.LVL81:
 1502 077a 86EB      		ldi r24,lo8(950)
 1503 077c 93E0      		ldi r25,hi8(950)
 1504               	.LVL82:
 1505               	.L69:
 1506               	.LBB252:
 1507               	.LBB253:
 1508               	.LBB254:
 1509               	.LBB255:
 1510               	.LM205:
 1511 077e F201      		movw r30,r4
 1512               	/* #APP */
 1513               	 ;  105 "c:/winavr-20100110/lib/gcc/../../avr/include/util/delay_basic.h" 1
 1514 0780 3197      		1: sbiw r30,1
 1515 0782 01F4      		brne 1b
 1516               	 ;  0 "" 2
 1517               	/* #NOAPP */
 1518               	.LBE255:
 1519               	.LBE254:
 1520               	.LM206:
 1521 0784 0197      		sbiw r24,1
 1522               	.LM207:
 1523 0786 01F4      		brne .L69
 1524 0788 00C0      		rjmp .L150
 1525               	.L86:
 1526               	.LBE253:
 1527               	.LBE252:
 1528               	.LM208:
 1529 078a B4E0      		ldi r27,lo8(4)
 1530 078c 3B16      		cp r3,r27
 1531 078e 01F0      		breq .L75
 1532 0790 B315      		cp r27,r3
 1533 0792 00F0      		brlo .L79
 1534 0794 22E0      		ldi r18,lo8(2)
 1535 0796 3216      		cp r3,r18
 1536 0798 01F0      		breq .L73
 1537 079a 2315      		cp r18,r3
 1538 079c 00F0      		brlo .L74
 1539 079e 81E0      		ldi r24,lo8(1)
 1540               	.LVL83:
 1541 07a0 3816      		cp r3,r24
 1542 07a2 01F4      		brne .L71
 1543 07a4 00C0      		rjmp .L164
 1544               	.LVL84:
 1545               	.L79:
 1546 07a6 96E0      		ldi r25,lo8(6)
 1547 07a8 3916      		cp r3,r25
 1548 07aa 01F0      		breq .L77
 1549 07ac 3916      		cp r3,r25
 1550 07ae 00F0      		brlo .L76
 1551 07b0 A7E0      		ldi r26,lo8(7)
 1552 07b2 3A16      		cp r3,r26
 1553 07b4 01F4      		brne .L71
 1554 07b6 00C0      		rjmp .L165
 1555               	.LVL85:
 1556               	.L164:
 1557               	.LM209:
 1558 07b8 C301      		movw r24,r6
 1559 07ba 60E0      		ldi r22,lo8(.LC19)
 1560 07bc 70E0      		ldi r23,hi8(.LC19)
 1561 07be 00C0      		rjmp .L156
 1562               	.LVL86:
 1563               	.L73:
 1564               	.LM210:
 1565 07c0 C301      		movw r24,r6
 1566               	.LVL87:
 1567 07c2 60E0      		ldi r22,lo8(.LC20)
 1568 07c4 70E0      		ldi r23,hi8(.LC20)
 1569 07c6 00C0      		rjmp .L156
 1570               	.LVL88:
 1571               	.L74:
 1572               	.LM211:
 1573 07c8 C301      		movw r24,r6
 1574               	.LVL89:
 1575 07ca 60E0      		ldi r22,lo8(.LC21)
 1576 07cc 70E0      		ldi r23,hi8(.LC21)
 1577 07ce 00C0      		rjmp .L156
 1578               	.LVL90:
 1579               	.L75:
 1580               	.LM212:
 1581 07d0 C301      		movw r24,r6
 1582               	.LVL91:
 1583 07d2 60E0      		ldi r22,lo8(.LC22)
 1584 07d4 70E0      		ldi r23,hi8(.LC22)
 1585 07d6 00C0      		rjmp .L156
 1586               	.LVL92:
 1587               	.L76:
 1588               	.LM213:
 1589 07d8 C301      		movw r24,r6
 1590               	.LVL93:
 1591 07da 60E0      		ldi r22,lo8(.LC23)
 1592 07dc 70E0      		ldi r23,hi8(.LC23)
 1593 07de 00C0      		rjmp .L156
 1594               	.LVL94:
 1595               	.L77:
 1596               	.LM214:
 1597 07e0 C301      		movw r24,r6
 1598               	.LVL95:
 1599 07e2 60E0      		ldi r22,lo8(.LC24)
 1600 07e4 70E0      		ldi r23,hi8(.LC24)
 1601 07e6 00C0      		rjmp .L156
 1602               	.LVL96:
 1603               	.L165:
 1604               	.LM215:
 1605 07e8 C301      		movw r24,r6
 1606               	.LVL97:
 1607 07ea 60E0      		ldi r22,lo8(.LC25)
 1608 07ec 70E0      		ldi r23,hi8(.LC25)
 1609               	.L156:
 1610 07ee 0E94 0000 		call strcpy
 1611               	.LVL98:
 1612               	.L71:
 1613               	.LM216:
 1614 07f2 4E99      		sbic 41-32,6
 1615 07f4 00C0      		rjmp .L80
 1616               	.LM217:
 1617 07f6 3A94      		dec r3
 1618               	.LM218:
 1619 07f8 01F4      		brne .L81
 1620 07fa 87E0      		ldi r24,lo8(7)
 1621 07fc 382E      		mov r3,r24
 1622               	.LVL99:
 1623               	.L81:
 1624 07fe 86EB      		ldi r24,lo8(950)
 1625 0800 93E0      		ldi r25,hi8(950)
 1626               	.LVL100:
 1627               	.L82:
 1628               	.LBB256:
 1629               	.LBB257:
 1630               	.LBB258:
 1631               	.LBB259:
 1632               	.LM219:
 1633 0802 F201      		movw r30,r4
 1634               	.LVL101:
 1635               	/* #APP */
 1636               	 ;  105 "c:/winavr-20100110/lib/gcc/../../avr/include/util/delay_basic.h" 1
 1637 0804 3197      		1: sbiw r30,1
 1638 0806 01F4      		brne 1b
 1639               	 ;  0 "" 2
 1640               	/* #NOAPP */
 1641               	.LBE259:
 1642               	.LBE258:
 1643               	.LM220:
 1644 0808 0197      		sbiw r24,1
 1645               	.LM221:
 1646 080a 01F4      		brne .L82
 1647               	.LVL102:
 1648               	.L80:
 1649               	.LBE257:
 1650               	.LBE256:
 1651               	.LM222:
 1652 080c 4D99      		sbic 41-32,5
 1653 080e 00C0      		rjmp .L83
 1654               	.LM223:
 1655 0810 3394      		inc r3
 1656               	.LM224:
 1657 0812 B8E0      		ldi r27,lo8(8)
 1658 0814 3B16      		cp r3,r27
 1659 0816 01F4      		brne .L84
 1660 0818 3324      		clr r3
 1661 081a 3394      		inc r3
 1662               	.L84:
 1663 081c 86EB      		ldi r24,lo8(950)
 1664 081e 93E0      		ldi r25,hi8(950)
 1665               	.LVL103:
 1666               	.L85:
 1667               	.LBB260:
 1668               	.LBB261:
 1669               	.LBB262:
 1670               	.LBB263:
 1671               	.LM225:
 1672 0820 F201      		movw r30,r4
 1673               	.LVL104:
 1674               	/* #APP */
 1675               	 ;  105 "c:/winavr-20100110/lib/gcc/../../avr/include/util/delay_basic.h" 1
 1676 0822 3197      		1: sbiw r30,1
 1677 0824 01F4      		brne 1b
 1678               	 ;  0 "" 2
 1679               	/* #NOAPP */
 1680               	.LBE263:
 1681               	.LBE262:
 1682               	.LM226:
 1683 0826 0197      		sbiw r24,1
 1684               	.LM227:
 1685 0828 01F4      		brne .L85
 1686               	.LVL105:
 1687               	.L83:
 1688               	.LBE261:
 1689               	.LBE260:
 1690               	.LM228:
 1691 082a 82E3      		ldi r24,lo8(50)
 1692               	.LVL106:
 1693 082c 60E2      		ldi r22,lo8(32)
 1694 082e A301      		movw r20,r6
 1695 0830 0E94 0000 		call glcd_draw_string_xy
 1696               	.LVL107:
 1697               	.LM229:
 1698 0834 0E94 0000 		call glcd_write
 1699               	.LVL108:
 1700               	.L150:
 1701               	.LM230:
 1702 0838 4A99      		sbic 41-32,2
 1703 083a 00C0      		rjmp .L86
 1704               	.LM231:
 1705 083c 832D      		mov r24,r3
 1706               	.LVL109:
 1707 083e 0E94 0000 		call RTCSetWeekday
 1708               	.LVL110:
 1709 0842 86EB      		ldi r24,lo8(950)
 1710 0844 93E0      		ldi r25,hi8(950)
 1711               	.LVL111:
 1712               	.L87:
 1713               	.LBB264:
 1714               	.LBB265:
 1715               	.LBB266:
 1716               	.LBB267:
 1717               	.LM232:
 1718 0846 F201      		movw r30,r4
 1719               	/* #APP */
 1720               	 ;  105 "c:/winavr-20100110/lib/gcc/../../avr/include/util/delay_basic.h" 1
 1721 0848 3197      		1: sbiw r30,1
 1722 084a 01F4      		brne 1b
 1723               	 ;  0 "" 2
 1724               	/* #NOAPP */
 1725               	.LBE267:
 1726               	.LBE266:
 1727               	.LM233:
 1728 084c 0197      		sbiw r24,1
 1729               	.LM234:
 1730 084e 01F4      		brne .L87
 1731               	.LBE265:
 1732               	.LBE264:
 1733               	.LM235:
 1734 0850 0E94 0000 		call glcd_clear
 1735               	.LVL112:
 1736               	.LM236:
 1737 0854 0E94 0000 		call glcd_clear_buffer
 1738               	.LM237:
 1739 0858 C301      		movw r24,r6
 1740 085a 60E0      		ldi r22,lo8(.LC26)
 1741 085c 70E0      		ldi r23,hi8(.LC26)
 1742 085e 0E94 0000 		call strcpy
 1743               	.LM238:
 1744 0862 80E0      		ldi r24,lo8(0)
 1745 0864 60E0      		ldi r22,lo8(0)
 1746 0866 A301      		movw r20,r6
 1747 0868 0E94 0000 		call glcd_draw_string_xy
 1748               	.LM239:
 1749 086c C301      		movw r24,r6
 1750 086e 60E0      		ldi r22,lo8(.LC27)
 1751 0870 70E0      		ldi r23,hi8(.LC27)
 1752 0872 0E94 0000 		call strcpy
 1753               	.LM240:
 1754 0876 80E0      		ldi r24,lo8(0)
 1755 0878 68E0      		ldi r22,lo8(8)
 1756 087a A301      		movw r20,r6
 1757 087c 0E94 0000 		call glcd_draw_string_xy
 1758               	.LM241:
 1759 0880 C301      		movw r24,r6
 1760 0882 60E0      		ldi r22,lo8(.LC28)
 1761 0884 70E0      		ldi r23,hi8(.LC28)
 1762 0886 0E94 0000 		call strcpy
 1763               	.LM242:
 1764 088a 80E0      		ldi r24,lo8(0)
 1765 088c 60E1      		ldi r22,lo8(16)
 1766 088e 00C0      		rjmp .L157
 1767               	.L95:
 1768               	.LM243:
 1769 0890 4E99      		sbic 41-32,6
 1770 0892 00C0      		rjmp .L89
 1771               	.LM244:
 1772 0894 29A1      		ldd r18,Y+33
 1773 0896 2150      		subi r18,lo8(-(-1))
 1774 0898 29A3      		std Y+33,r18
 1775               	.LVL113:
 1776               	.LM245:
 1777 089a 2F3F      		cpi r18,lo8(-1)
 1778 089c 01F4      		brne .L90
 1779 089e 88E1      		ldi r24,lo8(24)
 1780 08a0 89A3      		std Y+33,r24
 1781               	.LVL114:
 1782               	.L90:
 1783 08a2 86EB      		ldi r24,lo8(950)
 1784 08a4 93E0      		ldi r25,hi8(950)
 1785               	.LVL115:
 1786               	.L91:
 1787               	.LBB268:
 1788               	.LBB269:
 1789               	.LBB270:
 1790               	.LBB271:
 1791               	.LM246:
 1792 08a6 F201      		movw r30,r4
 1793               	/* #APP */
 1794               	 ;  105 "c:/winavr-20100110/lib/gcc/../../avr/include/util/delay_basic.h" 1
 1795 08a8 3197      		1: sbiw r30,1
 1796 08aa 01F4      		brne 1b
 1797               	 ;  0 "" 2
 1798               	/* #NOAPP */
 1799               	.LBE271:
 1800               	.LBE270:
 1801               	.LM247:
 1802 08ac 0197      		sbiw r24,1
 1803               	.LM248:
 1804 08ae 01F4      		brne .L91
 1805               	.L89:
 1806               	.LBE269:
 1807               	.LBE268:
 1808               	.LM249:
 1809 08b0 4D99      		sbic 41-32,5
 1810 08b2 00C0      		rjmp .L92
 1811               	.LM250:
 1812 08b4 99A1      		ldd r25,Y+33
 1813 08b6 9F5F      		subi r25,lo8(-(1))
 1814 08b8 99A3      		std Y+33,r25
 1815               	.LVL116:
 1816               	.LM251:
 1817 08ba 9931      		cpi r25,lo8(25)
 1818 08bc 01F4      		brne .L93
 1819 08be 19A2      		std Y+33,__zero_reg__
 1820               	.LVL117:
 1821               	.L93:
 1822 08c0 86EB      		ldi r24,lo8(950)
 1823 08c2 93E0      		ldi r25,hi8(950)
 1824               	.LVL118:
 1825               	.L94:
 1826               	.LBB272:
 1827               	.LBB273:
 1828               	.LBB274:
 1829               	.LBB275:
 1830               	.LM252:
 1831 08c4 F201      		movw r30,r4
 1832               	.LVL119:
 1833               	/* #APP */
 1834               	 ;  105 "c:/winavr-20100110/lib/gcc/../../avr/include/util/delay_basic.h" 1
 1835 08c6 3197      		1: sbiw r30,1
 1836 08c8 01F4      		brne 1b
 1837               	 ;  0 "" 2
 1838               	/* #NOAPP */
 1839               	.LBE275:
 1840               	.LBE274:
 1841               	.LM253:
 1842 08ca 0197      		sbiw r24,1
 1843               	.LM254:
 1844 08cc 01F4      		brne .L94
 1845               	.LVL120:
 1846               	.L92:
 1847               	.LBE273:
 1848               	.LBE272:
 1849               	.LM255:
 1850 08ce 00D0      		rcall .
 1851 08d0 00D0      		rcall .
 1852 08d2 00D0      		rcall .
 1853 08d4 EDB7      		in r30,__SP_L__
 1854 08d6 FEB7      		in r31,__SP_H__
 1855               	.LVL121:
 1856 08d8 3196      		adiw r30,1
 1857 08da ADB7      		in r26,__SP_L__
 1858 08dc BEB7      		in r27,__SP_H__
 1859 08de 1296      		adiw r26,1+1
 1860 08e0 7C92      		st X,r7
 1861 08e2 6E92      		st -X,r6
 1862 08e4 1197      		sbiw r26,1
 1863 08e6 80E0      		ldi r24,lo8(.LC18)
 1864 08e8 90E0      		ldi r25,hi8(.LC18)
 1865               	.LVL122:
 1866 08ea 9383      		std Z+3,r25
 1867 08ec 8283      		std Z+2,r24
 1868 08ee 99A1      		ldd r25,Y+33
 1869 08f0 9483      		std Z+4,r25
 1870 08f2 1582      		std Z+5,__zero_reg__
 1871 08f4 0E94 0000 		call sprintf
 1872               	.LM256:
 1873 08f8 ADB7      		in r26,__SP_L__
 1874 08fa BEB7      		in r27,__SP_H__
 1875 08fc 1696      		adiw r26,6
 1876 08fe 0FB6      		in __tmp_reg__,__SREG__
 1877 0900 F894      		cli
 1878 0902 BEBF      		out __SP_H__,r27
 1879 0904 0FBE      		out __SREG__,__tmp_reg__
 1880 0906 ADBF      		out __SP_L__,r26
 1881 0908 82E3      		ldi r24,lo8(50)
 1882 090a 60E0      		ldi r22,lo8(0)
 1883               	.L157:
 1884 090c A301      		movw r20,r6
 1885 090e 0E94 0000 		call glcd_draw_string_xy
 1886               	.LM257:
 1887 0912 0E94 0000 		call glcd_write
 1888               	.LM258:
 1889 0916 4A99      		sbic 41-32,2
 1890 0918 00C0      		rjmp .L95
 1891               	.LM259:
 1892 091a 89A1      		ldd r24,Y+33
 1893 091c 0E94 0000 		call RTCSetHour
 1894 0920 86EB      		ldi r24,lo8(950)
 1895 0922 93E0      		ldi r25,hi8(950)
 1896               	.LVL123:
 1897               	.L96:
 1898               	.LBB276:
 1899               	.LBB277:
 1900               	.LBB278:
 1901               	.LBB279:
 1902               	.LM260:
 1903 0924 F201      		movw r30,r4
 1904               	/* #APP */
 1905               	 ;  105 "c:/winavr-20100110/lib/gcc/../../avr/include/util/delay_basic.h" 1
 1906 0926 3197      		1: sbiw r30,1
 1907 0928 01F4      		brne 1b
 1908               	 ;  0 "" 2
 1909               	/* #NOAPP */
 1910               	.LBE279:
 1911               	.LBE278:
 1912               	.LM261:
 1913 092a 0197      		sbiw r24,1
 1914               	.LM262:
 1915 092c 01F4      		brne .L96
 1916 092e 00C0      		rjmp .L151
 1917               	.L104:
 1918               	.LBE277:
 1919               	.LBE276:
 1920               	.LM263:
 1921 0930 4E99      		sbic 41-32,6
 1922 0932 00C0      		rjmp .L98
 1923               	.LM264:
 1924 0934 B8A1      		ldd r27,Y+32
 1925 0936 B150      		subi r27,lo8(-(-1))
 1926 0938 B8A3      		std Y+32,r27
 1927               	.LVL124:
 1928               	.LM265:
 1929 093a BF3F      		cpi r27,lo8(-1)
 1930 093c 01F4      		brne .L99
 1931 093e 2BE3      		ldi r18,lo8(59)
 1932 0940 28A3      		std Y+32,r18
 1933               	.LVL125:
 1934               	.L99:
 1935 0942 86EB      		ldi r24,lo8(950)
 1936 0944 93E0      		ldi r25,hi8(950)
 1937               	.LVL126:
 1938               	.L100:
 1939               	.LBB280:
 1940               	.LBB281:
 1941               	.LBB282:
 1942               	.LBB283:
 1943               	.LM266:
 1944 0946 F201      		movw r30,r4
 1945               	.LVL127:
 1946               	/* #APP */
 1947               	 ;  105 "c:/winavr-20100110/lib/gcc/../../avr/include/util/delay_basic.h" 1
 1948 0948 3197      		1: sbiw r30,1
 1949 094a 01F4      		brne 1b
 1950               	 ;  0 "" 2
 1951               	/* #NOAPP */
 1952               	.LBE283:
 1953               	.LBE282:
 1954               	.LM267:
 1955 094c 0197      		sbiw r24,1
 1956               	.LM268:
 1957 094e 01F4      		brne .L100
 1958               	.LVL128:
 1959               	.L98:
 1960               	.LBE281:
 1961               	.LBE280:
 1962               	.LM269:
 1963 0950 4D99      		sbic 41-32,5
 1964 0952 00C0      		rjmp .L101
 1965               	.LM270:
 1966 0954 88A1      		ldd r24,Y+32
 1967               	.LVL129:
 1968 0956 8F5F      		subi r24,lo8(-(1))
 1969 0958 88A3      		std Y+32,r24
 1970               	.LVL130:
 1971               	.LM271:
 1972 095a 8C33      		cpi r24,lo8(60)
 1973 095c 01F4      		brne .L102
 1974 095e 18A2      		std Y+32,__zero_reg__
 1975               	.LVL131:
 1976               	.L102:
 1977 0960 86EB      		ldi r24,lo8(950)
 1978 0962 93E0      		ldi r25,hi8(950)
 1979               	.LVL132:
 1980               	.L103:
 1981               	.LBB284:
 1982               	.LBB285:
 1983               	.LBB286:
 1984               	.LBB287:
 1985               	.LM272:
 1986 0964 F201      		movw r30,r4
 1987               	.LVL133:
 1988               	/* #APP */
 1989               	 ;  105 "c:/winavr-20100110/lib/gcc/../../avr/include/util/delay_basic.h" 1
 1990 0966 3197      		1: sbiw r30,1
 1991 0968 01F4      		brne 1b
 1992               	 ;  0 "" 2
 1993               	/* #NOAPP */
 1994               	.LBE287:
 1995               	.LBE286:
 1996               	.LM273:
 1997 096a 0197      		sbiw r24,1
 1998               	.LM274:
 1999 096c 01F4      		brne .L103
 2000               	.LVL134:
 2001               	.L101:
 2002               	.LBE285:
 2003               	.LBE284:
 2004               	.LM275:
 2005 096e 00D0      		rcall .
 2006 0970 00D0      		rcall .
 2007 0972 00D0      		rcall .
 2008 0974 EDB7      		in r30,__SP_L__
 2009 0976 FEB7      		in r31,__SP_H__
 2010               	.LVL135:
 2011 0978 3196      		adiw r30,1
 2012 097a ADB7      		in r26,__SP_L__
 2013 097c BEB7      		in r27,__SP_H__
 2014 097e 1296      		adiw r26,1+1
 2015 0980 7C92      		st X,r7
 2016 0982 6E92      		st -X,r6
 2017 0984 1197      		sbiw r26,1
 2018 0986 80E0      		ldi r24,lo8(.LC18)
 2019 0988 90E0      		ldi r25,hi8(.LC18)
 2020               	.LVL136:
 2021 098a 9383      		std Z+3,r25
 2022 098c 8283      		std Z+2,r24
 2023 098e 98A1      		ldd r25,Y+32
 2024 0990 9483      		std Z+4,r25
 2025 0992 1582      		std Z+5,__zero_reg__
 2026 0994 0E94 0000 		call sprintf
 2027               	.LM276:
 2028 0998 ADB7      		in r26,__SP_L__
 2029 099a BEB7      		in r27,__SP_H__
 2030 099c 1696      		adiw r26,6
 2031 099e 0FB6      		in __tmp_reg__,__SREG__
 2032 09a0 F894      		cli
 2033 09a2 BEBF      		out __SP_H__,r27
 2034 09a4 0FBE      		out __SREG__,__tmp_reg__
 2035 09a6 ADBF      		out __SP_L__,r26
 2036 09a8 82E3      		ldi r24,lo8(50)
 2037 09aa 68E0      		ldi r22,lo8(8)
 2038 09ac A301      		movw r20,r6
 2039 09ae 0E94 0000 		call glcd_draw_string_xy
 2040               	.LM277:
 2041 09b2 0E94 0000 		call glcd_write
 2042               	.LVL137:
 2043               	.L151:
 2044               	.LM278:
 2045 09b6 4A99      		sbic 41-32,2
 2046 09b8 00C0      		rjmp .L104
 2047               	.LM279:
 2048 09ba 88A1      		ldd r24,Y+32
 2049               	.LVL138:
 2050 09bc 0E94 0000 		call RTCSetMinute
 2051               	.LVL139:
 2052 09c0 86EB      		ldi r24,lo8(950)
 2053 09c2 93E0      		ldi r25,hi8(950)
 2054               	.LVL140:
 2055               	.L105:
 2056               	.LBB288:
 2057               	.LBB289:
 2058               	.LBB290:
 2059               	.LBB291:
 2060               	.LM280:
 2061 09c4 F201      		movw r30,r4
 2062               	/* #APP */
 2063               	 ;  105 "c:/winavr-20100110/lib/gcc/../../avr/include/util/delay_basic.h" 1
 2064 09c6 3197      		1: sbiw r30,1
 2065 09c8 01F4      		brne 1b
 2066               	 ;  0 "" 2
 2067               	/* #NOAPP */
 2068               	.LBE291:
 2069               	.LBE290:
 2070               	.LM281:
 2071 09ca 0197      		sbiw r24,1
 2072               	.LM282:
 2073 09cc 01F4      		brne .L105
 2074 09ce 00C0      		rjmp .L152
 2075               	.L113:
 2076               	.LBE289:
 2077               	.LBE288:
 2078               	.LM283:
 2079 09d0 4E99      		sbic 41-32,6
 2080 09d2 00C0      		rjmp .L107
 2081               	.LM284:
 2082 09d4 BF8D      		ldd r27,Y+31
 2083 09d6 B150      		subi r27,lo8(-(-1))
 2084 09d8 BF8F      		std Y+31,r27
 2085               	.LVL141:
 2086               	.LM285:
 2087 09da BF3F      		cpi r27,lo8(-1)
 2088 09dc 01F4      		brne .L108
 2089 09de 2BE3      		ldi r18,lo8(59)
 2090 09e0 2F8F      		std Y+31,r18
 2091               	.LVL142:
 2092               	.L108:
 2093 09e2 86EB      		ldi r24,lo8(950)
 2094 09e4 93E0      		ldi r25,hi8(950)
 2095               	.LVL143:
 2096               	.L109:
 2097               	.LBB292:
 2098               	.LBB293:
 2099               	.LBB294:
 2100               	.LBB295:
 2101               	.LM286:
 2102 09e6 F201      		movw r30,r4
 2103               	.LVL144:
 2104               	/* #APP */
 2105               	 ;  105 "c:/winavr-20100110/lib/gcc/../../avr/include/util/delay_basic.h" 1
 2106 09e8 3197      		1: sbiw r30,1
 2107 09ea 01F4      		brne 1b
 2108               	 ;  0 "" 2
 2109               	/* #NOAPP */
 2110               	.LBE295:
 2111               	.LBE294:
 2112               	.LM287:
 2113 09ec 0197      		sbiw r24,1
 2114               	.LM288:
 2115 09ee 01F4      		brne .L109
 2116               	.LVL145:
 2117               	.L107:
 2118               	.LBE293:
 2119               	.LBE292:
 2120               	.LM289:
 2121 09f0 4D99      		sbic 41-32,5
 2122 09f2 00C0      		rjmp .L110
 2123               	.LM290:
 2124 09f4 8F8D      		ldd r24,Y+31
 2125               	.LVL146:
 2126 09f6 8F5F      		subi r24,lo8(-(1))
 2127 09f8 8F8F      		std Y+31,r24
 2128               	.LVL147:
 2129               	.LM291:
 2130 09fa 8C33      		cpi r24,lo8(60)
 2131 09fc 01F4      		brne .L111
 2132 09fe 1F8E      		std Y+31,__zero_reg__
 2133               	.LVL148:
 2134               	.L111:
 2135 0a00 86EB      		ldi r24,lo8(950)
 2136 0a02 93E0      		ldi r25,hi8(950)
 2137               	.LVL149:
 2138               	.L112:
 2139               	.LBB296:
 2140               	.LBB297:
 2141               	.LBB298:
 2142               	.LBB299:
 2143               	.LM292:
 2144 0a04 F201      		movw r30,r4
 2145               	.LVL150:
 2146               	/* #APP */
 2147               	 ;  105 "c:/winavr-20100110/lib/gcc/../../avr/include/util/delay_basic.h" 1
 2148 0a06 3197      		1: sbiw r30,1
 2149 0a08 01F4      		brne 1b
 2150               	 ;  0 "" 2
 2151               	/* #NOAPP */
 2152               	.LBE299:
 2153               	.LBE298:
 2154               	.LM293:
 2155 0a0a 0197      		sbiw r24,1
 2156               	.LM294:
 2157 0a0c 01F4      		brne .L112
 2158               	.LVL151:
 2159               	.L110:
 2160               	.LBE297:
 2161               	.LBE296:
 2162               	.LM295:
 2163 0a0e 00D0      		rcall .
 2164 0a10 00D0      		rcall .
 2165 0a12 00D0      		rcall .
 2166 0a14 EDB7      		in r30,__SP_L__
 2167 0a16 FEB7      		in r31,__SP_H__
 2168               	.LVL152:
 2169 0a18 3196      		adiw r30,1
 2170 0a1a ADB7      		in r26,__SP_L__
 2171 0a1c BEB7      		in r27,__SP_H__
 2172 0a1e 1296      		adiw r26,1+1
 2173 0a20 7C92      		st X,r7
 2174 0a22 6E92      		st -X,r6
 2175 0a24 1197      		sbiw r26,1
 2176 0a26 80E0      		ldi r24,lo8(.LC18)
 2177 0a28 90E0      		ldi r25,hi8(.LC18)
 2178               	.LVL153:
 2179 0a2a 9383      		std Z+3,r25
 2180 0a2c 8283      		std Z+2,r24
 2181 0a2e 9F8D      		ldd r25,Y+31
 2182 0a30 9483      		std Z+4,r25
 2183 0a32 1582      		std Z+5,__zero_reg__
 2184 0a34 0E94 0000 		call sprintf
 2185               	.LM296:
 2186 0a38 ADB7      		in r26,__SP_L__
 2187 0a3a BEB7      		in r27,__SP_H__
 2188 0a3c 1696      		adiw r26,6
 2189 0a3e 0FB6      		in __tmp_reg__,__SREG__
 2190 0a40 F894      		cli
 2191 0a42 BEBF      		out __SP_H__,r27
 2192 0a44 0FBE      		out __SREG__,__tmp_reg__
 2193 0a46 ADBF      		out __SP_L__,r26
 2194 0a48 82E3      		ldi r24,lo8(50)
 2195 0a4a 60E1      		ldi r22,lo8(16)
 2196 0a4c A301      		movw r20,r6
 2197 0a4e 0E94 0000 		call glcd_draw_string_xy
 2198               	.LM297:
 2199 0a52 0E94 0000 		call glcd_write
 2200               	.LVL154:
 2201               	.L152:
 2202               	.LM298:
 2203 0a56 4A99      		sbic 41-32,2
 2204 0a58 00C0      		rjmp .L113
 2205               	.LM299:
 2206 0a5a 8F8D      		ldd r24,Y+31
 2207               	.LVL155:
 2208 0a5c 0E94 0000 		call RTCSetSecond
 2209               	.LVL156:
 2210 0a60 86EB      		ldi r24,lo8(950)
 2211 0a62 93E0      		ldi r25,hi8(950)
 2212               	.LVL157:
 2213               	.L114:
 2214               	.LBB300:
 2215               	.LBB301:
 2216               	.LBB302:
 2217               	.LBB303:
 2218               	.LM300:
 2219 0a64 F201      		movw r30,r4
 2220               	/* #APP */
 2221               	 ;  105 "c:/winavr-20100110/lib/gcc/../../avr/include/util/delay_basic.h" 1
 2222 0a66 3197      		1: sbiw r30,1
 2223 0a68 01F4      		brne 1b
 2224               	 ;  0 "" 2
 2225               	/* #NOAPP */
 2226               	.LBE303:
 2227               	.LBE302:
 2228               	.LM301:
 2229 0a6a 0197      		sbiw r24,1
 2230               	.LM302:
 2231 0a6c 01F4      		brne .L114
 2232               	.LVL158:
 2233               	.L158:
 2234               	.LBE301:
 2235               	.LBE300:
 2236               	.LM303:
 2237 0a6e 0E94 0000 		call glcd_clear
 2238               	.LVL159:
 2239               	.LM304:
 2240 0a72 0E94 0000 		call glcd_clear_buffer
 2241               	.L153:
 2242 0a76 01E0      		ldi r16,lo8(1)
 2243 0a78 10E0      		ldi r17,lo8(0)
 2244 0a7a 00C0      		rjmp .L9
 2245               	.LFE9:
 2247               		.section	.progmem.data,"a",@progbits
 2250               	Font5x7:
 2251 0000 00        		.byte	0
 2252 0001 00        		.byte	0
 2253 0002 00        		.byte	0
 2254 0003 00        		.byte	0
 2255 0004 00        		.byte	0
 2256 0005 00        		.byte	0
 2257 0006 00        		.byte	0
 2258 0007 5F        		.byte	95
 2259 0008 00        		.byte	0
 2260 0009 00        		.byte	0
 2261 000a 00        		.byte	0
 2262 000b 07        		.byte	7
 2263 000c 00        		.byte	0
 2264 000d 07        		.byte	7
 2265 000e 00        		.byte	0
 2266 000f 14        		.byte	20
 2267 0010 7F        		.byte	127
 2268 0011 14        		.byte	20
 2269 0012 7F        		.byte	127
 2270 0013 14        		.byte	20
 2271 0014 24        		.byte	36
 2272 0015 2A        		.byte	42
 2273 0016 7F        		.byte	127
 2274 0017 2A        		.byte	42
 2275 0018 12        		.byte	18
 2276 0019 23        		.byte	35
 2277 001a 13        		.byte	19
 2278 001b 08        		.byte	8
 2279 001c 64        		.byte	100
 2280 001d 62        		.byte	98
 2281 001e 36        		.byte	54
 2282 001f 49        		.byte	73
 2283 0020 55        		.byte	85
 2284 0021 22        		.byte	34
 2285 0022 50        		.byte	80
 2286 0023 00        		.byte	0
 2287 0024 05        		.byte	5
 2288 0025 03        		.byte	3
 2289 0026 00        		.byte	0
 2290 0027 00        		.byte	0
 2291 0028 00        		.byte	0
 2292 0029 1C        		.byte	28
 2293 002a 22        		.byte	34
 2294 002b 41        		.byte	65
 2295 002c 00        		.byte	0
 2296 002d 00        		.byte	0
 2297 002e 41        		.byte	65
 2298 002f 22        		.byte	34
 2299 0030 1C        		.byte	28
 2300 0031 00        		.byte	0
 2301 0032 08        		.byte	8
 2302 0033 2A        		.byte	42
 2303 0034 1C        		.byte	28
 2304 0035 2A        		.byte	42
 2305 0036 08        		.byte	8
 2306 0037 08        		.byte	8
 2307 0038 08        		.byte	8
 2308 0039 3E        		.byte	62
 2309 003a 08        		.byte	8
 2310 003b 08        		.byte	8
 2311 003c 00        		.byte	0
 2312 003d 50        		.byte	80
 2313 003e 30        		.byte	48
 2314 003f 00        		.byte	0
 2315 0040 00        		.byte	0
 2316 0041 08        		.byte	8
 2317 0042 08        		.byte	8
 2318 0043 08        		.byte	8
 2319 0044 08        		.byte	8
 2320 0045 08        		.byte	8
 2321 0046 00        		.byte	0
 2322 0047 60        		.byte	96
 2323 0048 60        		.byte	96
 2324 0049 00        		.byte	0
 2325 004a 00        		.byte	0
 2326 004b 20        		.byte	32
 2327 004c 10        		.byte	16
 2328 004d 08        		.byte	8
 2329 004e 04        		.byte	4
 2330 004f 02        		.byte	2
 2331 0050 3E        		.byte	62
 2332 0051 51        		.byte	81
 2333 0052 49        		.byte	73
 2334 0053 45        		.byte	69
 2335 0054 3E        		.byte	62
 2336 0055 00        		.byte	0
 2337 0056 42        		.byte	66
 2338 0057 7F        		.byte	127
 2339 0058 40        		.byte	64
 2340 0059 00        		.byte	0
 2341 005a 42        		.byte	66
 2342 005b 61        		.byte	97
 2343 005c 51        		.byte	81
 2344 005d 49        		.byte	73
 2345 005e 46        		.byte	70
 2346 005f 21        		.byte	33
 2347 0060 41        		.byte	65
 2348 0061 45        		.byte	69
 2349 0062 4B        		.byte	75
 2350 0063 31        		.byte	49
 2351 0064 18        		.byte	24
 2352 0065 14        		.byte	20
 2353 0066 12        		.byte	18
 2354 0067 7F        		.byte	127
 2355 0068 10        		.byte	16
 2356 0069 27        		.byte	39
 2357 006a 45        		.byte	69
 2358 006b 45        		.byte	69
 2359 006c 45        		.byte	69
 2360 006d 39        		.byte	57
 2361 006e 3C        		.byte	60
 2362 006f 4A        		.byte	74
 2363 0070 49        		.byte	73
 2364 0071 49        		.byte	73
 2365 0072 30        		.byte	48
 2366 0073 01        		.byte	1
 2367 0074 71        		.byte	113
 2368 0075 09        		.byte	9
 2369 0076 05        		.byte	5
 2370 0077 03        		.byte	3
 2371 0078 36        		.byte	54
 2372 0079 49        		.byte	73
 2373 007a 49        		.byte	73
 2374 007b 49        		.byte	73
 2375 007c 36        		.byte	54
 2376 007d 06        		.byte	6
 2377 007e 49        		.byte	73
 2378 007f 49        		.byte	73
 2379 0080 29        		.byte	41
 2380 0081 1E        		.byte	30
 2381 0082 00        		.byte	0
 2382 0083 36        		.byte	54
 2383 0084 36        		.byte	54
 2384 0085 00        		.byte	0
 2385 0086 00        		.byte	0
 2386 0087 00        		.byte	0
 2387 0088 56        		.byte	86
 2388 0089 36        		.byte	54
 2389 008a 00        		.byte	0
 2390 008b 00        		.byte	0
 2391 008c 00        		.byte	0
 2392 008d 08        		.byte	8
 2393 008e 14        		.byte	20
 2394 008f 22        		.byte	34
 2395 0090 41        		.byte	65
 2396 0091 14        		.byte	20
 2397 0092 14        		.byte	20
 2398 0093 14        		.byte	20
 2399 0094 14        		.byte	20
 2400 0095 14        		.byte	20
 2401 0096 41        		.byte	65
 2402 0097 22        		.byte	34
 2403 0098 14        		.byte	20
 2404 0099 08        		.byte	8
 2405 009a 00        		.byte	0
 2406 009b 02        		.byte	2
 2407 009c 01        		.byte	1
 2408 009d 51        		.byte	81
 2409 009e 09        		.byte	9
 2410 009f 06        		.byte	6
 2411 00a0 32        		.byte	50
 2412 00a1 49        		.byte	73
 2413 00a2 79        		.byte	121
 2414 00a3 41        		.byte	65
 2415 00a4 3E        		.byte	62
 2416 00a5 7E        		.byte	126
 2417 00a6 11        		.byte	17
 2418 00a7 11        		.byte	17
 2419 00a8 11        		.byte	17
 2420 00a9 7E        		.byte	126
 2421 00aa 7F        		.byte	127
 2422 00ab 49        		.byte	73
 2423 00ac 49        		.byte	73
 2424 00ad 49        		.byte	73
 2425 00ae 36        		.byte	54
 2426 00af 3E        		.byte	62
 2427 00b0 41        		.byte	65
 2428 00b1 41        		.byte	65
 2429 00b2 41        		.byte	65
 2430 00b3 22        		.byte	34
 2431 00b4 7F        		.byte	127
 2432 00b5 41        		.byte	65
 2433 00b6 41        		.byte	65
 2434 00b7 22        		.byte	34
 2435 00b8 1C        		.byte	28
 2436 00b9 7F        		.byte	127
 2437 00ba 49        		.byte	73
 2438 00bb 49        		.byte	73
 2439 00bc 49        		.byte	73
 2440 00bd 41        		.byte	65
 2441 00be 7F        		.byte	127
 2442 00bf 09        		.byte	9
 2443 00c0 09        		.byte	9
 2444 00c1 01        		.byte	1
 2445 00c2 01        		.byte	1
 2446 00c3 3E        		.byte	62
 2447 00c4 41        		.byte	65
 2448 00c5 41        		.byte	65
 2449 00c6 51        		.byte	81
 2450 00c7 32        		.byte	50
 2451 00c8 7F        		.byte	127
 2452 00c9 08        		.byte	8
 2453 00ca 08        		.byte	8
 2454 00cb 08        		.byte	8
 2455 00cc 7F        		.byte	127
 2456 00cd 00        		.byte	0
 2457 00ce 41        		.byte	65
 2458 00cf 7F        		.byte	127
 2459 00d0 41        		.byte	65
 2460 00d1 00        		.byte	0
 2461 00d2 20        		.byte	32
 2462 00d3 40        		.byte	64
 2463 00d4 41        		.byte	65
 2464 00d5 3F        		.byte	63
 2465 00d6 01        		.byte	1
 2466 00d7 7F        		.byte	127
 2467 00d8 08        		.byte	8
 2468 00d9 14        		.byte	20
 2469 00da 22        		.byte	34
 2470 00db 41        		.byte	65
 2471 00dc 7F        		.byte	127
 2472 00dd 40        		.byte	64
 2473 00de 40        		.byte	64
 2474 00df 40        		.byte	64
 2475 00e0 40        		.byte	64
 2476 00e1 7F        		.byte	127
 2477 00e2 02        		.byte	2
 2478 00e3 04        		.byte	4
 2479 00e4 02        		.byte	2
 2480 00e5 7F        		.byte	127
 2481 00e6 7F        		.byte	127
 2482 00e7 04        		.byte	4
 2483 00e8 08        		.byte	8
 2484 00e9 10        		.byte	16
 2485 00ea 7F        		.byte	127
 2486 00eb 3E        		.byte	62
 2487 00ec 41        		.byte	65
 2488 00ed 41        		.byte	65
 2489 00ee 41        		.byte	65
 2490 00ef 3E        		.byte	62
 2491 00f0 7F        		.byte	127
 2492 00f1 09        		.byte	9
 2493 00f2 09        		.byte	9
 2494 00f3 09        		.byte	9
 2495 00f4 06        		.byte	6
 2496 00f5 3E        		.byte	62
 2497 00f6 41        		.byte	65
 2498 00f7 51        		.byte	81
 2499 00f8 21        		.byte	33
 2500 00f9 5E        		.byte	94
 2501 00fa 7F        		.byte	127
 2502 00fb 09        		.byte	9
 2503 00fc 19        		.byte	25
 2504 00fd 29        		.byte	41
 2505 00fe 46        		.byte	70
 2506 00ff 46        		.byte	70
 2507 0100 49        		.byte	73
 2508 0101 49        		.byte	73
 2509 0102 49        		.byte	73
 2510 0103 31        		.byte	49
 2511 0104 01        		.byte	1
 2512 0105 01        		.byte	1
 2513 0106 7F        		.byte	127
 2514 0107 01        		.byte	1
 2515 0108 01        		.byte	1
 2516 0109 3F        		.byte	63
 2517 010a 40        		.byte	64
 2518 010b 40        		.byte	64
 2519 010c 40        		.byte	64
 2520 010d 3F        		.byte	63
 2521 010e 1F        		.byte	31
 2522 010f 20        		.byte	32
 2523 0110 40        		.byte	64
 2524 0111 20        		.byte	32
 2525 0112 1F        		.byte	31
 2526 0113 7F        		.byte	127
 2527 0114 20        		.byte	32
 2528 0115 18        		.byte	24
 2529 0116 20        		.byte	32
 2530 0117 7F        		.byte	127
 2531 0118 63        		.byte	99
 2532 0119 14        		.byte	20
 2533 011a 08        		.byte	8
 2534 011b 14        		.byte	20
 2535 011c 63        		.byte	99
 2536 011d 03        		.byte	3
 2537 011e 04        		.byte	4
 2538 011f 78        		.byte	120
 2539 0120 04        		.byte	4
 2540 0121 03        		.byte	3
 2541 0122 61        		.byte	97
 2542 0123 51        		.byte	81
 2543 0124 49        		.byte	73
 2544 0125 45        		.byte	69
 2545 0126 43        		.byte	67
 2546 0127 00        		.byte	0
 2547 0128 00        		.byte	0
 2548 0129 7F        		.byte	127
 2549 012a 41        		.byte	65
 2550 012b 41        		.byte	65
 2551 012c 02        		.byte	2
 2552 012d 04        		.byte	4
 2553 012e 08        		.byte	8
 2554 012f 10        		.byte	16
 2555 0130 20        		.byte	32
 2556 0131 41        		.byte	65
 2557 0132 41        		.byte	65
 2558 0133 7F        		.byte	127
 2559 0134 00        		.byte	0
 2560 0135 00        		.byte	0
 2561 0136 04        		.byte	4
 2562 0137 02        		.byte	2
 2563 0138 01        		.byte	1
 2564 0139 02        		.byte	2
 2565 013a 04        		.byte	4
 2566 013b 40        		.byte	64
 2567 013c 40        		.byte	64
 2568 013d 40        		.byte	64
 2569 013e 40        		.byte	64
 2570 013f 40        		.byte	64
 2571 0140 00        		.byte	0
 2572 0141 01        		.byte	1
 2573 0142 02        		.byte	2
 2574 0143 04        		.byte	4
 2575 0144 00        		.byte	0
 2576 0145 20        		.byte	32
 2577 0146 54        		.byte	84
 2578 0147 54        		.byte	84
 2579 0148 54        		.byte	84
 2580 0149 78        		.byte	120
 2581 014a 7F        		.byte	127
 2582 014b 48        		.byte	72
 2583 014c 44        		.byte	68
 2584 014d 44        		.byte	68
 2585 014e 38        		.byte	56
 2586 014f 38        		.byte	56
 2587 0150 44        		.byte	68
 2588 0151 44        		.byte	68
 2589 0152 44        		.byte	68
 2590 0153 20        		.byte	32
 2591 0154 38        		.byte	56
 2592 0155 44        		.byte	68
 2593 0156 44        		.byte	68
 2594 0157 48        		.byte	72
 2595 0158 7F        		.byte	127
 2596 0159 38        		.byte	56
 2597 015a 54        		.byte	84
 2598 015b 54        		.byte	84
 2599 015c 54        		.byte	84
 2600 015d 18        		.byte	24
 2601 015e 08        		.byte	8
 2602 015f 7E        		.byte	126
 2603 0160 09        		.byte	9
 2604 0161 01        		.byte	1
 2605 0162 02        		.byte	2
 2606 0163 08        		.byte	8
 2607 0164 14        		.byte	20
 2608 0165 54        		.byte	84
 2609 0166 54        		.byte	84
 2610 0167 3C        		.byte	60
 2611 0168 7F        		.byte	127
 2612 0169 08        		.byte	8
 2613 016a 04        		.byte	4
 2614 016b 04        		.byte	4
 2615 016c 78        		.byte	120
 2616 016d 00        		.byte	0
 2617 016e 44        		.byte	68
 2618 016f 7D        		.byte	125
 2619 0170 40        		.byte	64
 2620 0171 00        		.byte	0
 2621 0172 20        		.byte	32
 2622 0173 40        		.byte	64
 2623 0174 44        		.byte	68
 2624 0175 3D        		.byte	61
 2625 0176 00        		.byte	0
 2626 0177 00        		.byte	0
 2627 0178 7F        		.byte	127
 2628 0179 10        		.byte	16
 2629 017a 28        		.byte	40
 2630 017b 44        		.byte	68
 2631 017c 00        		.byte	0
 2632 017d 41        		.byte	65
 2633 017e 7F        		.byte	127
 2634 017f 40        		.byte	64
 2635 0180 00        		.byte	0
 2636 0181 7C        		.byte	124
 2637 0182 04        		.byte	4
 2638 0183 18        		.byte	24
 2639 0184 04        		.byte	4
 2640 0185 78        		.byte	120
 2641 0186 7C        		.byte	124
 2642 0187 08        		.byte	8
 2643 0188 04        		.byte	4
 2644 0189 04        		.byte	4
 2645 018a 78        		.byte	120
 2646 018b 38        		.byte	56
 2647 018c 44        		.byte	68
 2648 018d 44        		.byte	68
 2649 018e 44        		.byte	68
 2650 018f 38        		.byte	56
 2651 0190 7C        		.byte	124
 2652 0191 14        		.byte	20
 2653 0192 14        		.byte	20
 2654 0193 14        		.byte	20
 2655 0194 08        		.byte	8
 2656 0195 08        		.byte	8
 2657 0196 14        		.byte	20
 2658 0197 14        		.byte	20
 2659 0198 18        		.byte	24
 2660 0199 7C        		.byte	124
 2661 019a 7C        		.byte	124
 2662 019b 08        		.byte	8
 2663 019c 04        		.byte	4
 2664 019d 04        		.byte	4
 2665 019e 08        		.byte	8
 2666 019f 48        		.byte	72
 2667 01a0 54        		.byte	84
 2668 01a1 54        		.byte	84
 2669 01a2 54        		.byte	84
 2670 01a3 20        		.byte	32
 2671 01a4 04        		.byte	4
 2672 01a5 3F        		.byte	63
 2673 01a6 44        		.byte	68
 2674 01a7 40        		.byte	64
 2675 01a8 20        		.byte	32
 2676 01a9 3C        		.byte	60
 2677 01aa 40        		.byte	64
 2678 01ab 40        		.byte	64
 2679 01ac 20        		.byte	32
 2680 01ad 7C        		.byte	124
 2681 01ae 1C        		.byte	28
 2682 01af 20        		.byte	32
 2683 01b0 40        		.byte	64
 2684 01b1 20        		.byte	32
 2685 01b2 1C        		.byte	28
 2686 01b3 3C        		.byte	60
 2687 01b4 40        		.byte	64
 2688 01b5 30        		.byte	48
 2689 01b6 40        		.byte	64
 2690 01b7 3C        		.byte	60
 2691 01b8 44        		.byte	68
 2692 01b9 28        		.byte	40
 2693 01ba 10        		.byte	16
 2694 01bb 28        		.byte	40
 2695 01bc 44        		.byte	68
 2696 01bd 0C        		.byte	12
 2697 01be 50        		.byte	80
 2698 01bf 50        		.byte	80
 2699 01c0 50        		.byte	80
 2700 01c1 3C        		.byte	60
 2701 01c2 44        		.byte	68
 2702 01c3 64        		.byte	100
 2703 01c4 54        		.byte	84
 2704 01c5 4C        		.byte	76
 2705 01c6 44        		.byte	68
 2706 01c7 00        		.byte	0
 2707 01c8 08        		.byte	8
 2708 01c9 36        		.byte	54
 2709 01ca 41        		.byte	65
 2710 01cb 00        		.byte	0
 2711 01cc 00        		.byte	0
 2712 01cd 00        		.byte	0
 2713 01ce 7F        		.byte	127
 2714 01cf 00        		.byte	0
 2715 01d0 00        		.byte	0
 2716 01d1 00        		.byte	0
 2717 01d2 41        		.byte	65
 2718 01d3 36        		.byte	54
 2719 01d4 08        		.byte	8
 2720 01d5 00        		.byte	0
 2721 01d6 08        		.byte	8
 2722 01d7 08        		.byte	8
 2723 01d8 2A        		.byte	42
 2724 01d9 1C        		.byte	28
 2725 01da 08        		.byte	8
 2726 01db 08        		.byte	8
 2727 01dc 1C        		.byte	28
 2728 01dd 2A        		.byte	42
 2729 01de 08        		.byte	8
 2730 01df 08        		.byte	8
 2731               		.comm ms,1,1
 2732               		.comm ms10,1,1
 2733               		.comm ms100,1,1
 2734               		.comm sec,1,1
 2735               		.comm min,1,1
 2736               		.comm entprell,1,1
 2737               		.comm state,1,1
 2770               	.Letext0:
DEFINED SYMBOLS
                            *ABS*:00000000 main.c
C:\Users\RAUM\AppData\Local\Temp/ccHpQtvy.s:2      *ABS*:0000003f __SREG__
C:\Users\RAUM\AppData\Local\Temp/ccHpQtvy.s:3      *ABS*:0000003e __SP_H__
C:\Users\RAUM\AppData\Local\Temp/ccHpQtvy.s:4      *ABS*:0000003d __SP_L__
C:\Users\RAUM\AppData\Local\Temp/ccHpQtvy.s:5      *ABS*:00000034 __CCP__
C:\Users\RAUM\AppData\Local\Temp/ccHpQtvy.s:6      *ABS*:00000000 __tmp_reg__
C:\Users\RAUM\AppData\Local\Temp/ccHpQtvy.s:7      *ABS*:00000001 __zero_reg__
C:\Users\RAUM\AppData\Local\Temp/ccHpQtvy.s:18     .text:00000000 __vector_11
                            *COM*:00000001 ms10
                            *COM*:00000001 entprell
                            *COM*:00000001 ms100
                            *COM*:00000001 sec
                            *COM*:00000001 min
                            *COM*:00000001 state
C:\Users\RAUM\AppData\Local\Temp/ccHpQtvy.s:153    .text:0000007e main
C:\Users\RAUM\AppData\Local\Temp/ccHpQtvy.s:2250   .progmem.data:00000000 Font5x7
                            *COM*:00000001 ms

UNDEFINED SYMBOLS
glcd_init
glcd_clear
glcd_write
glcd_tiny_set_font
glcd_clear_buffer
TWIInit
InitRTC
strcpy
glcd_draw_string_xy
RTCReadByte
sprintf
RTCSetYear
RTCSetMonth
RTCSetDate
RTCSetWeekday
RTCSetHour
RTCSetMinute
RTCSetSecond
__do_copy_data
__do_clear_bss
